(dp1
S'output'
p2
S"<class 'sqlite3.OperationalError'> table tabla6 already exists"
p3
sS'layer'
p4
S'/media/miguel/WORK/web2py/applications/seeda/models/db_tables.py'
p5
sS'code'
p6
S'# coding=utf-8\r\n\r\n__author__ = \'Miguel Antonio\'\r\n\r\nimport datetime\r\n\r\n\r\n#Definici\xc3\xb3n de las tablas de la aplicaci\xc3\xb3n con sus funciones disparadaras (Triggers) y restricciones\r\n#-------------------------------------------------------------------------------------------------------#\r\n#Tabla Aspectos\r\ndb.define_table(\'aspectos\',\r\n                Field(\'aspecto\', \'string\', required=True, unique=True, label=T(\'Aspect\')),\r\n                format=\'%(aspecto)s\')\r\n#Triggers\r\n\r\n#Restricciones\r\ndb.aspectos.id.readable = False\r\ndb.aspectos.id.writable = False\r\n\r\n#-------------------------------------------------------------------------------------------------------#\r\n#Tabla Solicitudes\r\ndb.define_table(\'solicitudes\',\r\n                Field(\'proyecto\', \'string\', required=True, label=T(\'Proyect name\'), requires=IS_NOT_EMPTY()),\r\n                Field(\'archivos\', \'upload\', required=True, label=T(\'File\'), requires=IS_NOT_EMPTY(),\r\n                      autodelete=True, uploadseparate=True),\r\n                Field(\'estado\', default="Pendiente",\r\n                      requires=IS_IN_SET([\'Pendiente\', \'Rechazada\', \'Cancelada\', \'Evalu\xc3\xa1ndose\',\r\n                                          \'Evaluada\']), label=T(\'State\')),\r\n                Field(\'fecha\', \'datetime\', default=datetime.datetime.now(), label=T(\'Create date\')),\r\n                Field(\'publico\', required=True, label=T(\'Public\'),\r\n                      requires=IS_IN_SET([\'Si\', \'No\']), default=\'Si\'),\r\n                Field(\'observaciones\', \'text\', default=\'Sin observaciones\', label=T(\'Observations\')),\r\n                Field(\'id_usuario\', \'reference auth_user\', required=True, default=auth.user_id, label=T(\'User\')),\r\n                format=\'%(proyecto)s\')\r\n#Triggers\r\ndef solicitudes_before_insert(f):\r\n    consulta = db(db.solicitudes.proyecto == f[\'proyecto\']).count()\r\n    if consulta > 0:\r\n        return True\r\n\r\ndef solicitudes_after_update(s, f):\r\n    if f[\'estado\'] == \'Evalu\xc3\xa1ndose\':\r\n        conteo = db(db.auth_membership.group_id == 2).count()\r\n        if conteo > 6:\r\n            expertos = db(db.auth_membership.group_id == 2).select(db.auth_membership.user_id)\r\n            solicitud = db.solicitudes(f[\'id\'])\r\n            for experto in expertos:\r\n                db.expertosasociados.insert(id_usuario=experto.user_id, id_solicitudes=solicitud.id)\r\n            expertos = db(db.expertosasociados.id_solicitudes == solicitud.id).select(\r\n            db.expertosasociados.ALL)\r\n            aspectos = db(db.aspectossolicitud.id_solicitudes == solicitud.id).select(db.aspectossolicitud.ALL)\r\n            for aspecto in aspectos:\r\n                for experto in expertos:\r\n                    db.evaluaciones.insert(id_solicitudes=solicitud.id, id_aspectossolicitud=aspecto.id,\r\n                                       id_experto=experto.id)\r\n        else:\r\n            c = (db.solicitudes.id == f[\'id\'])\r\n            miset = db(c)\r\n            miset.update(estado="Cancelada", observaciones=\'La cantidad de expertos existentes no es suficiente para evaluar esta solicitud\')\r\n\r\n#Restricciones\r\ndb.solicitudes.fecha.writable = False\r\ndb.solicitudes.publico.requires = IS_IN_SET((\'Si\', \'No\'))\r\ndb.solicitudes.observaciones.writable = False\r\ndb.solicitudes.id_usuario.writable = False\r\ndb.solicitudes.id.readable = False\r\ndb.solicitudes.id.writable = False\r\ndb.solicitudes.estado.writable = False\r\ndb.solicitudes.publico.readable = False\r\ndb.solicitudes._after_update.append(solicitudes_after_update)\r\ndb.solicitudes._before_insert.append(solicitudes_before_insert)\r\n#-------------------------------------------------------------------------------------------------------#\r\n\r\n#Tabla Aspectos-solicitudes\r\ndb.define_table(\'aspectossolicitud\',\r\n                Field(\'id_solicitudes\', \'reference solicitudes\', required=True,\r\n                      label=T(\'Proyect name\')),\r\n                Field(\'id_aspecto\', \'reference aspectos\', label=T(\'Aspect to evaluate\'), required=True),\r\n                Field(\'evaluacionfinal\', default=\'\',\r\n                      requires=IS_IN_SET([\'Muy Mal\', \'Mal\', \'Regular\', \'Bien\', \'Muy Bien\']),\r\n                      label="Evaluaci\xc3\xb3n Final"),\r\n                format=lambda row: row.id_aspecto.aspecto)\r\n#Triggers\r\n# def aspectossolicitud_before_insert(f):\r\n#     print(f)\r\n#     solicitud = f[\'id_solicitudes\']\r\n#     aspecto = f[\'id_aspecto\']\r\n#     conteo = db(\r\n#         (db.aspectossolicitud.id_solicitudes == solicitud) & (db.aspectossolicitud.id_aspecto == aspecto)).count()\r\n#     print(conteo)\r\n#     if conteo > 0:\r\n#         return True\r\n\r\n#Restricciones\r\ndb.aspectossolicitud.id_solicitudes.requires = IS_IN_DB(db, db.solicitudes, \'%(proyecto)s\')\r\ndb.aspectossolicitud.id_aspecto.requires = IS_IN_DB(db, db.aspectos, \'%(aspecto)s\')\r\ndb.aspectossolicitud.id.writable = False\r\ndb.aspectossolicitud.id.readable = False\r\n# db.aspectossolicitud._before_insert.append(aspectossolicitud_before_insert)\r\n#-------------------------------------------------------------------------------------------------------#\r\n\r\n#Tabla expertosasociados\r\ndb.define_table(\'expertosasociados\',\r\n                Field(\'id_solicitudes\', \'reference solicitudes\', required=True, label=T(\'Proyect name\')),\r\n                Field(\'id_usuario\', \'reference auth_user\', required=True, default=auth.user_id, label=T(\'User\')),\r\n                format=\'%(id_usuario)s\')\r\n#Triggers\r\n\r\n#Restricciones\r\ndb.expertosasociados.id_solicitudes.requires = IS_IN_DB(db, db.solicitudes, \'%(proyecto)s\')\r\ndb.expertosasociados.id.readable = False\r\ndb.expertosasociados.id.writable = False\r\n#-------------------------------------------------------------------------------------------------------#\r\n\r\n#Tabla Evaluaciones\r\ndb.define_table(\'evaluaciones\',\r\n                Field(\'id_solicitudes\', \'reference solicitudes\', required=True, label=T(\'Proyect name\'),\r\n                      writable=0),\r\n                Field(\'id_aspectossolicitud\', \'reference aspectossolicitud\', label=T(\'Aspect\'), writable=0),\r\n                Field(\'id_experto\', \'reference expertosasociados\', label=T(\'Expert\')),\r\n                Field(\'evaluacion\', default=\'Sin evaluaci\xc3\xb3n\',\r\n                      requires=IS_IN_SET([\'Muy Mal\', \'Mal\', \'Regular\', \'Bien\', \'Muy Bien\']),\r\n                      label=T(\'Evaluation\')),\r\n                Field(\'delphi\', \'string\', default=\'Sin ejecutar\'))\r\n\r\n#Triggers\r\n\r\n#Restricciones\r\ndb.evaluaciones.id_experto.readable = False\r\ndb.evaluaciones.id_experto.writable = False\r\ndb.evaluaciones.id.writable = False\r\ndb.evaluaciones.id.readable = False\r\ndb.evaluaciones.id_solicitudes.requires = IS_IN_DB(db, db.solicitudes, \'%(proyecto)s\')\r\n#-------------------------------------------------------------------------------------------------------#\r\n\r\n#Tabla del inverso de la distribuci\xc3\xb3n normal est\xc3\xa1ndar acumulativa de los valores probabil\xc3\xadsticos entre 0 y 1\r\ndb.define_table(\'valores\',\r\n                Field(\'valor\', \'float\', unique=True),\r\n                Field(\'idnea\', \'float\'))\r\n\r\n\r\ndb.define_table(\'tabla1\',\r\n                Field(\'year\',\'integer\',unique=True, label=T(\'Year\')),\r\n                Field(\'azucar\',\'float\', label=T(\'Sugar\')),\r\n                Field(\'cacao\',\'float\', label=T(\'Cacao\')),\r\n                Field(\'cafe\',\'float\', label=T(\'Coffee\')),\r\n                Field(\'copra\',\'float\', label=T(\'Copra\')))\r\n\r\ndb.tabla1.id.writable = False\r\ndb.tabla1.id.readable = False\r\n\r\ndb.define_table(\'tabla2\',\r\n                Field(\'producto\',\'text\', label=T(\'Product\')),\r\n                Field(\'year\',\'integer\', label=T(\'Year\')),\r\n                Field(\'kilogramos\',\'string\',default=\'0\', label=T(\'Kilograms\')),\r\n                Field(\'valor\',\'string\',default=\'0\', label=T(\'Value\')))\r\n\r\ndb.define_table(\'tabla3\',\r\n                Field(\'producto\',\'text\'),\r\n                Field(\'year\',\'integer\'),\r\n                Field(\'kilogramos\',\'string\',default=\'0\'),\r\n                Field(\'valor\',\'string\',default=\'0\'))\r\n\r\ndb.define_table(\'tabla4\',\r\n                Field(\'producto\',\'text\'),\r\n                Field(\'destino\',\'text\'),\r\n                Field(\'year\',\'integer\'),\r\n                Field(\'kilogramos\',\'string\',default=\'0\'),\r\n                Field(\'valor\',\'string\',default=\'0\'))\r\n\r\ndb.define_table(\'tabla5\',\r\n                Field(\'producto\',\'text\'),\r\n                Field(\'origen\',\'text\'),\r\n                Field(\'year\',\'integer\'),\r\n                Field(\'kilogramos\',\'string\',default=\'0\'),\r\n                Field(\'valor\',\'string\',default=\'0\'))\r\n\r\ndb.define_table(\'tabla6\',\r\n                Field(\'producto\',\'text\'),\r\n                Field(\'year\',\'integer\'),\r\n                Field(\'kilogramos\',\'string\',default=\'0\'),\r\n                Field(\'valor\',\'string\',default=\'0\'))\r\n\r\ndb.define_table(\'tabla7\',\r\n                Field(\'producto\',\'text\'),\r\n                Field(\'year\',\'integer\'),\r\n                Field(\'kilogramos\',\'string\',default=\'0\'),\r\n                Field(\'valor\',\'string\',default=\'0\'))\r\n'
p7
sS'snapshot'
p8
(dp9
S'exception'
p10
(dp11
S'__module__'
p12
S"'sqlite3'"
p13
sS'__getslice__'
p14
S"<method-wrapper '__getslice__' of OperationalError object>"
p15
sS'__str__'
p16
S"<method-wrapper '__str__' of OperationalError object>"
p17
sS'__reduce__'
p18
S'<built-in method __reduce__ of OperationalError object>'
p19
sS'__dict__'
p20
S'{}'
p21
sS'__sizeof__'
p22
S'<built-in method __sizeof__ of OperationalError object>'
p23
sS'__weakref__'
p24
S'None'
p25
sS'__init__'
p26
S"<method-wrapper '__init__' of OperationalError object>"
p27
sS'__setattr__'
p28
S"<method-wrapper '__setattr__' of OperationalError object>"
p29
sS'__reduce_ex__'
p30
S'<built-in method __reduce_ex__ of OperationalError object>'
p31
sS'__new__'
p32
S'<built-in method __new__ of type object>'
p33
sS'__format__'
p34
S'<built-in method __format__ of OperationalError object>'
p35
sS'__class__'
p36
S"<class 'sqlite3.OperationalError'>"
p37
sS'__doc__'
p38
S'None'
p39
sS'__getitem__'
p40
S"<method-wrapper '__getitem__' of OperationalError object>"
p41
sS'__setstate__'
p42
S'<built-in method __setstate__ of OperationalError object>'
p43
sS'__getattribute__'
p44
S"<method-wrapper '__getattribute__' of OperationalError object>"
p45
sS'args'
p46
S"('table tabla6 already exists',)"
p47
sS'__subclasshook__'
p48
S'<built-in method __subclasshook__ of type object>'
p49
sS'__unicode__'
p50
S'<built-in method __unicode__ of OperationalError object>'
p51
sS'__delattr__'
p52
S"<method-wrapper '__delattr__' of OperationalError object>"
p53
sS'__repr__'
p54
S"<method-wrapper '__repr__' of OperationalError object>"
p55
sS'__hash__'
p56
S"<method-wrapper '__hash__' of OperationalError object>"
p57
ssS'evalue'
p58
S'table tabla6 already exists'
p59
sS'request'
p60
cgluon.html
XML_unpickle
p61
(S's\xacb\x00\x00<div><table><tr><td style="font-weight:bold;vertical-align:top;">ajax</td><td style="vertical-align:top;">:</td><td><div>False</div></td></tr><tr><td style="font-weight:bold;vertical-align:top;">application</td><td style="vertical-align:top;">:</td><td><div>seeda</div></td></tr><tr><td style="font-weight:bold;vertical-align:top;">args</td><td style="vertical-align:top;">:</td><td><div><table></table></div></td></tr><tr><td style="font-weight:bold;vertical-align:top;">cid</td><td style="vertical-align:top;">:</td><td><div>None</div></td></tr><tr><td style="font-weight:bold;vertical-align:top;">client</td><td style="vertical-align:top;">:</td><td><div>10.53.3.202</div></td></tr><tr><td style="font-weight:bold;vertical-align:top;">controller</td><td style="vertical-align:top;">:</td><td><div>default</div></td></tr><tr><td style="font-weight:bold;vertical-align:top;">cookies</td><td style="vertical-align:top;">:</td><td><div><table><tr><td style="font-weight:bold;vertical-align:top;">session_id_admin</td><td style="vertical-align:top;">:</td><td><div>10.53.3.202-85c5ddb3-a434-4a90-90d3-5ef792415a09<table><tr><td style="font-weight:bold;vertical-align:top;">comment</td><td style="vertical-align:top;">:</td><td><div></div></td></tr><tr><td style="font-weight:bold;vertical-align:top;">domain</td><td style="vertical-align:top;">:</td><td><div></div></td></tr><tr><td style="font-weight:bold;vertical-align:top;">expires</td><td style="vertical-align:top;">:</td><td><div></div></td></tr><tr><td style="font-weight:bold;vertical-align:top;">httponly</td><td style="vertical-align:top;">:</td><td><div></div></td></tr><tr><td style="font-weight:bold;vertical-align:top;">max-age</td><td style="vertical-align:top;">:</td><td><div></div></td></tr><tr><td style="font-weight:bold;vertical-align:top;">path</td><td style="vertical-align:top;">:</td><td><div></div></td></tr><tr><td style="font-weight:bold;vertical-align:top;">secure</td><td style="vertical-align:top;">:</td><td><div></div></td></tr><tr><td style="font-weight:bold;vertical-align:top;">version</td><td style="vertical-align:top;">:</td><td><div></div></td></tr></table></div></td></tr><tr><td style="font-weight:bold;vertical-align:top;">session_id_seeda</td><td style="vertical-align:top;">:</td><td><div>10.53.3.202-c3e695f5-054e-4da7-ae1b-de150a0b2694<table><tr><td style="font-weight:bold;vertical-align:top;">comment</td><td style="vertical-align:top;">:</td><td><div></div></td></tr><tr><td style="font-weight:bold;vertical-align:top;">domain</td><td style="vertical-align:top;">:</td><td><div></div></td></tr><tr><td style="font-weight:bold;vertical-align:top;">expires</td><td style="vertical-align:top;">:</td><td><div></div></td></tr><tr><td style="font-weight:bold;vertical-align:top;">httponly</td><td style="vertical-align:top;">:</td><td><div></div></td></tr><tr><td style="font-weight:bold;vertical-align:top;">max-age</td><td style="vertical-align:top;">:</td><td><div></div></td></tr><tr><td style="font-weight:bold;vertical-align:top;">path</td><td style="vertical-align:top;">:</td><td><div></div></td></tr><tr><td style="font-weight:bold;vertical-align:top;">secure</td><td style="vertical-align:top;">:</td><td><div></div></td></tr><tr><td style="font-weight:bold;vertical-align:top;">version</td><td style="vertical-align:top;">:</td><td><div></div></td></tr></table></div></td></tr><tr><td style="font-weight:bold;vertical-align:top;">session_id_seunova</td><td style="vertical-align:top;">:</td><td><div>10.53.3.202-58d4dc83-40d7-4409-9cc3-13246acc5f41<table><tr><td style="font-weight:bold;vertical-align:top;">comment</td><td style="vertical-align:top;">:</td><td><div></div></td></tr><tr><td style="font-weight:bold;vertical-align:top;">domain</td><td style="vertical-align:top;">:</td><td><div></div></td></tr><tr><td style="font-weight:bold;vertical-align:top;">expires</td><td style="vertical-align:top;">:</td><td><div></div></td></tr><tr><td style="font-weight:bold;vertical-align:top;">httponly</td><td style="vertical-align:top;">:</td><td><div></div></td></tr><tr><td style="font-weight:bold;vertical-align:top;">max-age</td><td style="vertical-align:top;">:</td><td><div></div></td></tr><tr><td style="font-weight:bold;vertical-align:top;">path</td><td style="vertical-align:top;">:</td><td><div></div></td></tr><tr><td style="font-weight:bold;vertical-align:top;">secure</td><td style="vertical-align:top;">:</td><td><div></div></td></tr><tr><td style="font-weight:bold;vertical-align:top;">version</td><td style="vertical-align:top;">:</td><td><div></div></td></tr></table></div></td></tr><tr><td style="font-weight:bold;vertical-align:top;">session_id_welcome</td><td style="vertical-align:top;">:</td><td><div>10.53.3.202-976db668-f7e1-49ac-9266-45f490871628<table><tr><td style="font-weight:bold;vertical-align:top;">comment</td><td style="vertical-align:top;">:</td><td><div></div></td></tr><tr><td style="font-weight:bold;vertical-align:top;">domain</td><td style="vertical-align:top;">:</td><td><div></div></td></tr><tr><td style="font-weight:bold;vertical-align:top;">expires</td><td style="vertical-align:top;">:</td><td><div></div></td></tr><tr><td style="font-weight:bold;vertical-align:top;">httponly</td><td style="vertical-align:top;">:</td><td><div></div></td></tr><tr><td style="font-weight:bold;vertical-align:top;">max-age</td><td style="vertical-align:top;">:</td><td><div></div></td></tr><tr><td style="font-weight:bold;vertical-align:top;">path</td><td style="vertical-align:top;">:</td><td><div></div></td></tr><tr><td style="font-weight:bold;vertical-align:top;">secure</td><td style="vertical-align:top;">:</td><td><div></div></td></tr><tr><td style="font-weight:bold;vertical-align:top;">version</td><td style="vertical-align:top;">:</td><td><div></div></td></tr></table></div></td></tr></table></div></td></tr><tr><td style="font-weight:bold;vertical-align:top;">env</td><td style="vertical-align:top;">:</td><td><div><table><tr><td style="font-weight:bold;vertical-align:top;">HTTP_ACCEPT</td><td style="vertical-align:top;">:</td><td><div>text/html,application/xhtml+xml,application/xml;q=0.9,*/*;q=0.8</div></td></tr><tr><td style="font-weight:bold;vertical-align:top;">HTTP_ACCEPT_ENCODING</td><td style="vertical-align:top;">:</td><td><div>gzip, deflate</div></td></tr><tr><td style="font-weight:bold;vertical-align:top;">HTTP_ACCEPT_LANGUAGE</td><td style="vertical-align:top;">:</td><td><div>es,en-US;q=0.7,en;q=0.3</div></td></tr><tr><td style="font-weight:bold;vertical-align:top;">HTTP_CACHE_CONTROL</td><td style="vertical-align:top;">:</td><td><div>max-age=0</div></td></tr><tr><td style="font-weight:bold;vertical-align:top;">HTTP_CONNECTION</td><td style="vertical-align:top;">:</td><td><div>keep-alive</div></td></tr><tr><td style="font-weight:bold;vertical-align:top;">HTTP_COOKIE</td><td style="vertical-align:top;">:</td><td><div>session_id_welcome=10.53.3.202-976db668-f7e1-49ac-9266-45f490871628; session_id_admin=10.53.3.202-85c5ddb3-a434-4a90-90d3-5ef792415a09; session_id_seunova=10.53.3.202-58d4dc83-40d7-4409-9cc3-13246acc5f41; session_id_seeda=10.53.3.202-c3e695f5-054e-4da7-ae1b-de150a0b2694</div></td></tr><tr><td style="font-weight:bold;vertical-align:top;">HTTP_HOST</td><td style="vertical-align:top;">:</td><td><div>10.53.3.56:8000</div></td></tr><tr><td style="font-weight:bold;vertical-align:top;">HTTP_REFERER</td><td style="vertical-align:top;">:</td><td><div>http://10.53.3.56:8000/seeda/default/tabla1</div></td></tr><tr><td style="font-weight:bold;vertical-align:top;">HTTP_USER_AGENT</td><td style="vertical-align:top;">:</td><td><div>Mozilla/5.0 (X11; Ubuntu; Linux x86_64; rv:46.0) Gecko/20100101 Firefox/46.0</div></td></tr><tr><td style="font-weight:bold;vertical-align:top;">PATH_INFO</td><td style="vertical-align:top;">:</td><td><div>/seeda/default/tabla2</div></td></tr><tr><td style="font-weight:bold;vertical-align:top;">QUERY_STRING</td><td style="vertical-align:top;">:</td><td><div></div></td></tr><tr><td style="font-weight:bold;vertical-align:top;">REMOTE_ADDR</td><td style="vertical-align:top;">:</td><td><div>10.53.3.202</div></td></tr><tr><td style="font-weight:bold;vertical-align:top;">REMOTE_PORT</td><td style="vertical-align:top;">:</td><td><div>33974</div></td></tr><tr><td style="font-weight:bold;vertical-align:top;">REQUEST_METHOD</td><td style="vertical-align:top;">:</td><td><div>GET</div></td></tr><tr><td style="font-weight:bold;vertical-align:top;">SCRIPT_NAME</td><td style="vertical-align:top;">:</td><td><div></div></td></tr><tr><td style="font-weight:bold;vertical-align:top;">SERVER_NAME</td><td style="vertical-align:top;">:</td><td><div>miguel-asus-X555LAB</div></td></tr><tr><td style="font-weight:bold;vertical-align:top;">SERVER_PORT</td><td style="vertical-align:top;">:</td><td><div>8000</div></td></tr><tr><td style="font-weight:bold;vertical-align:top;">SERVER_PROTOCOL</td><td style="vertical-align:top;">:</td><td><div>HTTP/1.1</div></td></tr><tr><td style="font-weight:bold;vertical-align:top;">SERVER_SOFTWARE</td><td style="vertical-align:top;">:</td><td><div>Rocket 1.2.6</div></td></tr><tr><td style="font-weight:bold;vertical-align:top;">app_folders</td><td style="vertical-align:top;">:</td><td><div>set([&#x27;/media/miguel/WORK/web2py/applications/seeda/&#x27;, &#x27;/media/miguel/WORK/web2py/applications/welcome/&#x27;, &#x27;/media/miguel/WORK/web2py/applications/seunova/&#x27;, &#x27;/media/miguel/WORK/web2py/applications/seedap/&#x27;, &#x27;/media/miguel/WORK/web2py/applications/admin/&#x27;])</div></td></tr><tr><td style="font-weight:bold;vertical-align:top;">applications_parent</td><td style="vertical-align:top;">:</td><td><div>/media/miguel/WORK/web2py</div></td></tr><tr><td style="font-weight:bold;vertical-align:top;">cmd_args</td><td style="vertical-align:top;">:</td><td><div><table></table></div></td></tr><tr><td style="font-weight:bold;vertical-align:top;">cmd_options</td><td style="vertical-align:top;">:</td><td><div>&lt;Values at 0x7f537b782fc8: {&#x27;verbose&#x27;: False, &#x27;ip&#x27;: &#x27;127.0.0.1&#x27;, &#x27;debuglevel&#x27;: 30, &#x27;with_scheduler&#x27;: False, &#x27;ips&#x27;: [&#x27;127.0.1.1&#x27;], &#x27;shutdown_timeout&#x27;: 5, &#x27;taskbar&#x27;: False, &#x27;with_coverage&#x27;: False, &#x27;scheduler_groups&#x27;: None, &#x27;port&#x27;: 8000, &#x27;maxthreads&#x27;: None, &#x27;softcron&#x27;: False, &#x27;server_name&#x27;: &#x27;miguel-asus-X555LAB&#x27;, &#x27;bpython&#x27;: False, &#x27;nogui&#x27;: False, &#x27;pid_filename&#x27;: &#x27;httpserver.pid&#x27;, &#x27;extcron&#x27;: False, &#x27;runcron&#x27;: False, &#x27;run_system_tests&#x27;: False, &#x27;test&#x27;: None, &#x27;folder&#x27;: &#x27;/media/miguel/WORK/web2py&#x27;, &#x27;config&#x27;: &#x27;&#x27;, &#x27;minthreads&#x27;: None, &#x27;shell&#x27;: None, &#x27;run&#x27;: &#x27;&#x27;, &#x27;log_filename&#x27;: &#x27;httpserver.log&#x27;, &#x27;profiler_dir&#x27;: None, &#x27;args&#x27;: [&#x27;&#x27;], &#x27;socket_timeout&#x27;: 5, &#x27;ssl_ca_certificate&#x27;: None, &#x27;scheduler&#x27;: None, &#x27;interfaces&#x27;: None, &#x27;ssl_private_key&#x27;: &#x27;&#x27;, &#x27;gae&#x27;: None, &#x27;password&#x27;: &#x27;&lt;ask&gt;&#x27;, &#x27;request_queue_size&#x27;: 5, &#x27;ssl_certificate&#x27;: &#x27;&#x27;, &#x27;cronjob&#x27;: False, &#x27;numthreads&#x27;: None, &#x27;quiet&#x27;: False, &#x27;import_models&#x27;: False, &#x27;timeout&#x27;: 10, &#x27;plain&#x27;: False, &#x27;nobanner&#x27;: False}&gt;</div></td></tr><tr><td style="font-weight:bold;vertical-align:top;">db_sessions</td><td style="vertical-align:top;">:</td><td><div>set([])</div></td></tr><tr><td style="font-weight:bold;vertical-align:top;">debugging</td><td style="vertical-align:top;">:</td><td><div>False</div></td></tr><tr><td style="font-weight:bold;vertical-align:top;">gluon_parent</td><td style="vertical-align:top;">:</td><td><div>/media/miguel/WORK/web2py</div></td></tr><tr><td style="font-weight:bold;vertical-align:top;">http_accept</td><td style="vertical-align:top;">:</td><td><div>text/html,application/xhtml+xml,application/xml;q=0.9,*/*;q=0.8</div></td></tr><tr><td style="font-weight:bold;vertical-align:top;">http_accept_encoding</td><td style="vertical-align:top;">:</td><td><div>gzip, deflate</div></td></tr><tr><td style="font-weight:bold;vertical-align:top;">http_accept_language</td><td style="vertical-align:top;">:</td><td><div>es,en-US;q=0.7,en;q=0.3</div></td></tr><tr><td style="font-weight:bold;vertical-align:top;">http_cache_control</td><td style="vertical-align:top;">:</td><td><div>max-age=0</div></td></tr><tr><td style="font-weight:bold;vertical-align:top;">http_connection</td><td style="vertical-align:top;">:</td><td><div>keep-alive</div></td></tr><tr><td style="font-weight:bold;vertical-align:top;">http_cookie</td><td style="vertical-align:top;">:</td><td><div>session_id_welcome=10.53.3.202-976db668-f7e1-49ac-9266-45f490871628; session_id_admin=10.53.3.202-85c5ddb3-a434-4a90-90d3-5ef792415a09; session_id_seunova=10.53.3.202-58d4dc83-40d7-4409-9cc3-13246acc5f41; session_id_seeda=10.53.3.202-c3e695f5-054e-4da7-ae1b-de150a0b2694</div></td></tr><tr><td style="font-weight:bold;vertical-align:top;">http_host</td><td style="vertical-align:top;">:</td><td><div>10.53.3.56:8000</div></td></tr><tr><td style="font-weight:bold;vertical-align:top;">http_referer</td><td style="vertical-align:top;">:</td><td><div>http://10.53.3.56:8000/seeda/default/tabla1</div></td></tr><tr><td style="font-weight:bold;vertical-align:top;">http_user_agent</td><td style="vertical-align:top;">:</td><td><div>Mozilla/5.0 (X11; Ubuntu; Linux x86_64; rv:46.0) Gecko/20100101 Firefox/46.0</div></td></tr><tr><td style="font-weight:bold;vertical-align:top;">is_jython</td><td style="vertical-align:top;">:</td><td><div>False</div></td></tr><tr><td style="font-weight:bold;vertical-align:top;">is_pypy</td><td style="vertical-align:top;">:</td><td><div>False</div></td></tr><tr><td style="font-weight:bold;vertical-align:top;">is_source</td><td style="vertical-align:top;">:</td><td><div>True</div></td></tr><tr><td style="font-weight:bold;vertical-align:top;">local_hosts</td><td style="vertical-align:top;">:</td><td><div><table><tr><td><div>miguel-asus-X555LAB</div></td></tr><tr><td><div>::1</div></td></tr><tr><td><div>127.0.1.1</div></td></tr><tr><td><div>::ffff:127.0.0.1</div></td></tr><tr><td><div>127.0.0.1</div></td></tr></table></div></td></tr><tr><td style="font-weight:bold;vertical-align:top;">path_info</td><td style="vertical-align:top;">:</td><td><div>/seeda/default/tabla2</div></td></tr><tr><td style="font-weight:bold;vertical-align:top;">query_string</td><td style="vertical-align:top;">:</td><td><div></div></td></tr><tr><td style="font-weight:bold;vertical-align:top;">remote_addr</td><td style="vertical-align:top;">:</td><td><div>10.53.3.202</div></td></tr><tr><td style="font-weight:bold;vertical-align:top;">remote_port</td><td style="vertical-align:top;">:</td><td><div>33974</div></td></tr><tr><td style="font-weight:bold;vertical-align:top;">request_method</td><td style="vertical-align:top;">:</td><td><div>GET</div></td></tr><tr><td style="font-weight:bold;vertical-align:top;">request_uri</td><td style="vertical-align:top;">:</td><td><div>/seeda/default/tabla2</div></td></tr><tr><td style="font-weight:bold;vertical-align:top;">script_name</td><td style="vertical-align:top;">:</td><td><div></div></td></tr><tr><td style="font-weight:bold;vertical-align:top;">server_name</td><td style="vertical-align:top;">:</td><td><div>miguel-asus-X555LAB</div></td></tr><tr><td style="font-weight:bold;vertical-align:top;">server_port</td><td style="vertical-align:top;">:</td><td><div>8000</div></td></tr><tr><td style="font-weight:bold;vertical-align:top;">server_protocol</td><td style="vertical-align:top;">:</td><td><div>HTTP/1.1</div></td></tr><tr><td style="font-weight:bold;vertical-align:top;">server_software</td><td style="vertical-align:top;">:</td><td><div>Rocket 1.2.6</div></td></tr><tr><td style="font-weight:bold;vertical-align:top;">web2py_path</td><td style="vertical-align:top;">:</td><td><div>/media/miguel/WORK/web2py</div></td></tr><tr><td style="font-weight:bold;vertical-align:top;">web2py_version</td><td style="vertical-align:top;">:</td><td><div>2.9.12-stable+timestamp.2015.01.17.06.11.03</div></td></tr><tr><td style="font-weight:bold;vertical-align:top;">wsgi.errors</td><td style="vertical-align:top;">:</td><td><div>&lt;open file &#x27;&lt;stderr&gt;&#x27;, mode &#x27;w&#x27; at 0x7f5381fe71e0&gt;</div></td></tr><tr><td style="font-weight:bold;vertical-align:top;">wsgi.file_wrapper</td><td style="vertical-align:top;">:</td><td><div>&lt;class wsgiref.util.FileWrapper at 0x7f537b7ef0b8&gt;</div></td></tr><tr><td style="font-weight:bold;vertical-align:top;">wsgi.input</td><td style="vertical-align:top;">:</td><td><div>&lt;socket._fileobject object at 0x7f533aee7950&gt;</div></td></tr><tr><td style="font-weight:bold;vertical-align:top;">wsgi.multiprocess</td><td style="vertical-align:top;">:</td><td><div>False</div></td></tr><tr><td style="font-weight:bold;vertical-align:top;">wsgi.multithread</td><td style="vertical-align:top;">:</td><td><div>True</div></td></tr><tr><td style="font-weight:bold;vertical-align:top;">wsgi.run_once</td><td style="vertical-align:top;">:</td><td><div>False</div></td></tr><tr><td style="font-weight:bold;vertical-align:top;">wsgi.url_scheme</td><td style="vertical-align:top;">:</td><td><div>http</div></td></tr><tr><td style="font-weight:bold;vertical-align:top;">wsgi.version</td><td style="vertical-align:top;">:</td><td><div><table><tr><td><div>1</div></td></tr><tr><td><div>0</div></td></tr></table></div></td></tr><tr><td style="font-weight:bold;vertical-align:top;">wsgi_errors</td><td style="vertical-align:top;">:</td><td><div>&lt;open file &#x27;&lt;stderr&gt;&#x27;, mode &#x27;w&#x27; at 0x7f5381fe71e0&gt;</div></td></tr><tr><td style="font-weight:bold;vertical-align:top;">wsgi_file_wrapper</td><td style="vertical-align:top;">:</td><td><div>&lt;class wsgiref.util.FileWrapper at 0x7f537b7ef0b8&gt;</div></td></tr><tr><td style="font-weight:bold;vertical-align:top;">wsgi_input</td><td style="vertical-align:top;">:</td><td><div>&lt;socket._fileobject object at 0x7f533aee7950&gt;</div></td></tr><tr><td style="font-weight:bold;vertical-align:top;">wsgi_multiprocess</td><td style="vertical-align:top;">:</td><td><div>False</div></td></tr><tr><td style="font-weight:bold;vertical-align:top;">wsgi_multithread</td><td style="vertical-align:top;">:</td><td><div>True</div></td></tr><tr><td style="font-weight:bold;vertical-align:top;">wsgi_run_once</td><td style="vertical-align:top;">:</td><td><div>False</div></td></tr><tr><td style="font-weight:bold;vertical-align:top;">wsgi_url_scheme</td><td style="vertical-align:top;">:</td><td><div>http</div></td></tr><tr><td style="font-weight:bold;vertical-align:top;">wsgi_version</td><td style="vertical-align:top;">:</td><td><div><table><tr><td><div>1</div></td></tr><tr><td><div>0</div></td></tr></table></div></td></tr></table></div></td></tr><tr><td style="font-weight:bold;vertical-align:top;">extension</td><td style="vertical-align:top;">:</td><td><div>html</div></td></tr><tr><td style="font-weight:bold;vertical-align:top;">folder</td><td style="vertical-align:top;">:</td><td><div>/media/miguel/WORK/web2py/applications/seeda/</div></td></tr><tr><td style="font-weight:bold;vertical-align:top;">function</td><td style="vertical-align:top;">:</td><td><div>tabla2</div></td></tr><tr><td style="font-weight:bold;vertical-align:top;">global_settings</td><td style="vertical-align:top;">:</td><td><div><table><tr><td style="font-weight:bold;vertical-align:top;">app_folders</td><td style="vertical-align:top;">:</td><td><div>set([&#x27;/media/miguel/WORK/web2py/applications/seeda/&#x27;, &#x27;/media/miguel/WORK/web2py/applications/welcome/&#x27;, &#x27;/media/miguel/WORK/web2py/applications/seunova/&#x27;, &#x27;/media/miguel/WORK/web2py/applications/seedap/&#x27;, &#x27;/media/miguel/WORK/web2py/applications/admin/&#x27;])</div></td></tr><tr><td style="font-weight:bold;vertical-align:top;">applications_parent</td><td style="vertical-align:top;">:</td><td><div>/media/miguel/WORK/web2py</div></td></tr><tr><td style="font-weight:bold;vertical-align:top;">cmd_args</td><td style="vertical-align:top;">:</td><td><div><table></table></div></td></tr><tr><td style="font-weight:bold;vertical-align:top;">cmd_options</td><td style="vertical-align:top;">:</td><td><div>&lt;Values at 0x7f537b782fc8: {&#x27;verbose&#x27;: False, &#x27;ip&#x27;: &#x27;127.0.0.1&#x27;, &#x27;debuglevel&#x27;: 30, &#x27;with_scheduler&#x27;: False, &#x27;ips&#x27;: [&#x27;127.0.1.1&#x27;], &#x27;shutdown_timeout&#x27;: 5, &#x27;taskbar&#x27;: False, &#x27;with_coverage&#x27;: False, &#x27;scheduler_groups&#x27;: None, &#x27;port&#x27;: 8000, &#x27;maxthreads&#x27;: None, &#x27;softcron&#x27;: False, &#x27;server_name&#x27;: &#x27;miguel-asus-X555LAB&#x27;, &#x27;bpython&#x27;: False, &#x27;nogui&#x27;: False, &#x27;pid_filename&#x27;: &#x27;httpserver.pid&#x27;, &#x27;extcron&#x27;: False, &#x27;runcron&#x27;: False, &#x27;run_system_tests&#x27;: False, &#x27;test&#x27;: None, &#x27;folder&#x27;: &#x27;/media/miguel/WORK/web2py&#x27;, &#x27;config&#x27;: &#x27;&#x27;, &#x27;minthreads&#x27;: None, &#x27;shell&#x27;: None, &#x27;run&#x27;: &#x27;&#x27;, &#x27;log_filename&#x27;: &#x27;httpserver.log&#x27;, &#x27;profiler_dir&#x27;: None, &#x27;args&#x27;: [&#x27;&#x27;], &#x27;socket_timeout&#x27;: 5, &#x27;ssl_ca_certificate&#x27;: None, &#x27;scheduler&#x27;: None, &#x27;interfaces&#x27;: None, &#x27;ssl_private_key&#x27;: &#x27;&#x27;, &#x27;gae&#x27;: None, &#x27;password&#x27;: &#x27;&lt;ask&gt;&#x27;, &#x27;request_queue_size&#x27;: 5, &#x27;ssl_certificate&#x27;: &#x27;&#x27;, &#x27;cronjob&#x27;: False, &#x27;numthreads&#x27;: None, &#x27;quiet&#x27;: False, &#x27;import_models&#x27;: False, &#x27;timeout&#x27;: 10, &#x27;plain&#x27;: False, &#x27;nobanner&#x27;: False}&gt;</div></td></tr><tr><td style="font-weight:bold;vertical-align:top;">db_sessions</td><td style="vertical-align:top;">:</td><td><div>set([])</div></td></tr><tr><td style="font-weight:bold;vertical-align:top;">debugging</td><td style="vertical-align:top;">:</td><td><div>False</div></td></tr><tr><td style="font-weight:bold;vertical-align:top;">gluon_parent</td><td style="vertical-align:top;">:</td><td><div>/media/miguel/WORK/web2py</div></td></tr><tr><td style="font-weight:bold;vertical-align:top;">is_jython</td><td style="vertical-align:top;">:</td><td><div>False</div></td></tr><tr><td style="font-weight:bold;vertical-align:top;">is_pypy</td><td style="vertical-align:top;">:</td><td><div>False</div></td></tr><tr><td style="font-weight:bold;vertical-align:top;">is_source</td><td style="vertical-align:top;">:</td><td><div>True</div></td></tr><tr><td style="font-weight:bold;vertical-align:top;">local_hosts</td><td style="vertical-align:top;">:</td><td><div><table><tr><td><div>miguel-asus-X555LAB</div></td></tr><tr><td><div>::1</div></td></tr><tr><td><div>127.0.1.1</div></td></tr><tr><td><div>::ffff:127.0.0.1</div></td></tr><tr><td><div>127.0.0.1</div></td></tr></table></div></td></tr><tr><td style="font-weight:bold;vertical-align:top;">web2py_version</td><td style="vertical-align:top;">:</td><td><div>2.9.12-stable+timestamp.2015.01.17.06.11.03</div></td></tr></table></div></td></tr><tr><td style="font-weight:bold;vertical-align:top;">is_https</td><td style="vertical-align:top;">:</td><td><div>False</div></td></tr><tr><td style="font-weight:bold;vertical-align:top;">is_local</td><td style="vertical-align:top;">:</td><td><div>False</div></td></tr><tr><td style="font-weight:bold;vertical-align:top;">is_restful</td><td style="vertical-align:top;">:</td><td><div>False</div></td></tr><tr><td style="font-weight:bold;vertical-align:top;">is_sheduler</td><td style="vertical-align:top;">:</td><td><div>None</div></td></tr><tr><td style="font-weight:bold;vertical-align:top;">is_shell</td><td style="vertical-align:top;">:</td><td><div>None</div></td></tr><tr><td style="font-weight:bold;vertical-align:top;">now</td><td style="vertical-align:top;">:</td><td><div>datetime.datetime(2016, 5, 5, 22, 15, 24, 584903)</div></td></tr><tr><td style="font-weight:bold;vertical-align:top;">raw_args</td><td style="vertical-align:top;">:</td><td><div></div></td></tr><tr><td style="font-weight:bold;vertical-align:top;">raw_extension</td><td style="vertical-align:top;">:</td><td><div>None</div></td></tr><tr><td style="font-weight:bold;vertical-align:top;">url</td><td style="vertical-align:top;">:</td><td><div>/seeda/default/tabla2</div></td></tr><tr><td style="font-weight:bold;vertical-align:top;">utcnow</td><td style="vertical-align:top;">:</td><td><div>datetime.datetime(2016, 5, 6, 2, 15, 24, 584919)</div></td></tr><tr><td style="font-weight:bold;vertical-align:top;">uuid</td><td style="vertical-align:top;">:</td><td><div>seeda/10.53.3.202.2016-05-05.22-15-24.9ee0c87a-845d-4422-ba9c-2e6af841cc2d</div></td></tr><tr><td style="font-weight:bold;vertical-align:top;">wsgi</td><td style="vertical-align:top;">:</td><td><div>&lt;gluon.main.LazyWSGI object at 0x7f533a405a90&gt;</div></td></tr></table></div>'
tRp62
sS'frames'
p63
(lp64
(dp65
S'file'
p66
S'/media/miguel/WORK/web2py/gluon/restricted.py'
p67
sS'dump'
p68
(dp69
S'environment'
p70
S"{'A': <class 'gluon.html.A'>, 'ANY_OF': <class 'gluon.validators.ANY_OF'>, 'ASSIGNJS': <function ASSIGNJS>, 'Auth': <class 'gluon.tools.Auth'>, 'B': <class 'gluon.html.B'>, 'BEAUTIFY': <class 'gluon.html.BEAUTIFY'>, 'BODY': <class 'gluon.html.BODY'>, 'BR': <class 'gluon.html.BR'>, 'BUTTON': <class 'gluon.html.BUTTON'>, 'CAT': <class 'gluon.html.CAT'>, ...}"
p71
sS'ccode'
p72
S'<code object <module> at 0x7f5378534530, file "/.../applications/seeda/models/db_tables.py", line 3>'
p73
ssS'lnum'
p74
I224
sS'lines'
p75
(dp76
I224
S'        exec ccode in environment'
p77
sI225
S'    except HTTP:'
p78
sI226
S'        raise'
p79
sI227
S'    except RestrictedError:'
p80
sI228
S'        # do not encapsulate (obfuscate) the original RestrictedError'
p81
sI219
S'    try:'
p82
sI220
S'        if isinstance(code, types.CodeType):'
p83
sI221
S'            ccode = code'
p84
sI222
S'        else:'
p85
sI223
S'            ccode = compile2(code, layer)'
p86
ssS'call'
p87
S'(code="# coding=utf-8\\r\\n\\r\\n__author__ = \'Miguel Antonio\'\\r...           Field(\'valor\',\'string\',default=\'0\'))\\r\\n", environment={\'A\': <class \'gluon.html.A\'>, \'ANY_OF\': <class \'gluon.validators.ANY_OF\'>, \'ASSIGNJS\': <function ASSIGNJS>, \'Auth\': <class \'gluon.tools.Auth\'>, \'B\': <class \'gluon.html.B\'>, \'BEAUTIFY\': <class \'gluon.html.BEAUTIFY\'>, \'BODY\': <class \'gluon.html.BODY\'>, \'BR\': <class \'gluon.html.BR\'>, \'BUTTON\': <class \'gluon.html.BUTTON\'>, \'CAT\': <class \'gluon.html.CAT\'>, ...}, layer=\'/media/miguel/WORK/web2py/applications/seeda/models/db_tables.py\')'
p88
sS'func'
p89
S'restricted'
p90
sa(dp91
g66
S'/media/miguel/WORK/web2py/applications/seeda/models/db_tables.py'
p92
sg68
(dp93
S'default'
p94
S'undefined'
p95
sS'Field'
p96
S"<class 'gluon.dal.objects.Field'>"
p97
ssg74
I182
sg75
(dp98
I177
S''
sI178
S"db.define_table('tabla6',"
p99
sI179
S"                Field('producto','text'),"
p100
sI180
S"                Field('year','integer'),"
p101
sI181
S"                Field('kilogramos','string',default='0'),"
p102
sI182
S"                Field('valor','string',default='0'))"
p103
sI183
S''
sI184
S"db.define_table('tabla7',"
p104
sI185
S"                Field('producto','text'),"
p105
sI186
S"                Field('year','integer'),"
p106
ssg87
S'()'
p107
sg89
S'<module>'
p108
sa(dp109
g66
S'/media/miguel/WORK/web2py/gluon/dal/base.py'
p110
sg68
(dp111
S'fields'
p112
S'(<gluon.dal.objects.Field object>, <gluon.dal.objects.Field object>, <gluon.dal.objects.Field object>, <gluon.dal.objects.Field object>)'
p113
sS'self'
p114
S'<DAL uri="sqlite://storage.sqlite">'
p115
sS'args'
p116
g21
sS'tablename'
p117
S"'tabla6'"
p118
sS'table'
p119
g95
sS'self.lazy_define_table'
p120
S'<bound method DAL.lazy_define_table of <DAL uri="sqlite://storage.sqlite">>'
p121
ssg74
I787
sg75
(dp122
I782
S'                    % (tablename,invalid_args))'
p123
sI783
S'        if self._lazy_tables and not tablename in self._LAZY_TABLES:'
p124
sI784
S'            self._LAZY_TABLES[tablename] = (tablename,fields,args)'
p125
sI785
S'            table = None'
p126
sI786
S'        else:'
p127
sI787
S'            table = self.lazy_define_table(tablename,*fields,**args)'
p128
sI788
S'        if not tablename in self.tables:'
p129
sI789
S'            self.tables.append(tablename)'
p130
sI790
S'        return table'
p131
sI791
S''
ssg87
S'(self=<DAL uri="sqlite://storage.sqlite">, tablename=\'tabla6\', *fields=(<gluon.dal.objects.Field object>, <gluon.dal.objects.Field object>, <gluon.dal.objects.Field object>, <gluon.dal.objects.Field object>), **args={})'
p132
sg89
S'define_table'
p133
sa(dp134
g66
S'/media/miguel/WORK/web2py/gluon/dal/base.py'
p135
sg68
(dp136
S'polymodel'
p137
S'None'
p138
ssg74
I824
sg75
(dp139
I819
S'            try:'
p140
sI820
S'                GLOBAL_LOCKER.acquire()'
p141
sI821
S'                self._lastsql = self._adapter.create_table('
p142
sI822
S'                    table,migrate=migrate,'
p143
sI823
S'                    fake_migrate=fake_migrate,'
p144
sI824
S'                    polymodel=polymodel)'
p145
sI825
S'            finally:'
p146
sI826
S'                GLOBAL_LOCKER.release()'
p147
sI827
S'        else:'
p148
sI828
S'            table._dbt = None'
p149
ssg87
S'(self=<DAL uri="sqlite://storage.sqlite">, tablename=\'tabla6\', *fields=(<gluon.dal.objects.Field object>, <gluon.dal.objects.Field object>, <gluon.dal.objects.Field object>, <gluon.dal.objects.Field object>), **args={})'
p150
sg89
S'lazy_define_table'
p151
sa(dp152
g66
S'/media/miguel/WORK/web2py/gluon/dal/adapters/base.py'
p153
sg68
(dp154
S'query'
p155
S"'CREATE TABLE tabla6(\\n    id INTEGER PRIMARY KEY ...\\n    kilogramos CHAR(512),\\n    valor CHAR(512)\\n);'"
p156
sS'self'
p157
S'<gluon.dal.adapters.sqlite.SQLiteAdapter object>'
p158
sS'table'
p159
S'<Table tabla6 (id,producto,year,kilogramos,valor)>'
p160
sS'self.create_sequence_and_triggers'
p161
S'<bound method SQLiteAdapter.create_sequence_and_...<gluon.dal.adapters.sqlite.SQLiteAdapter object>>'
p162
ssg74
I459
sg75
(dp163
I454
S'            if table._dbt:'
p164
sI455
S"                self.log('timestamp: %s\\n%s\\n'"
p165
sI456
S'                         % (datetime.datetime.today().isoformat(),'
p166
sI457
S'                            query), table)'
p167
sI458
S'            if not fake_migrate:'
p168
sI459
S'                self.create_sequence_and_triggers(query,table)'
p169
sI460
S'                table._db.commit()'
p170
sI461
S'                # Postgres geom fields are added now,'
p171
sI462
S'                # after the table has been created'
p172
sI463
S'                for query in postcreation_fields:'
p173
ssg87
S'(self=<gluon.dal.adapters.sqlite.SQLiteAdapter object>, table=<Table tabla6 (id,producto,year,kilogramos,valor)>, migrate=True, fake_migrate=False, polymodel=None)'
p174
sg89
S'create_table'
p175
sa(dp176
g66
S'/media/miguel/WORK/web2py/gluon/dal/adapters/base.py'
p177
sg68
(dp178
S'query'
p179
S"'CREATE TABLE tabla6(\\n    id INTEGER PRIMARY KEY ...\\n    kilogramos CHAR(512),\\n    valor CHAR(512)\\n);'"
p180
sS'self'
p181
S'<gluon.dal.adapters.sqlite.SQLiteAdapter object>'
p182
sS'self.execute'
p183
S'<bound method SQLiteAdapter.execute of <gluon.dal.adapters.sqlite.SQLiteAdapter object>>'
p184
ssg74
I1300
sg75
(dp185
I1295
S''
sI1296
S'    def constraint_name(self, table, fieldname):'
p186
sI1297
S"        return '%s_%s__constraint' % (table,fieldname)"
p187
sI1298
S''
sI1299
S'    def create_sequence_and_triggers(self, query, table, **args):'
p188
sI1300
S'        self.execute(query)'
p189
sI1301
S''
sI1302
S''
sI1303
S'    def log_execute(self, *a, **b):'
p190
sI1304
S'        if not self.connection: raise ValueError(a[0])'
p191
ssg87
S"(self=<gluon.dal.adapters.sqlite.SQLiteAdapter object>, query='CREATE TABLE tabla6(\\n    id INTEGER PRIMARY KEY ...\\n    kilogramos CHAR(512),\\n    valor CHAR(512)\\n);', table=<Table tabla6 (id,producto,year,kilogramos,valor)>, **args={})"
p192
sg89
S'create_sequence_and_triggers'
p193
sa(dp194
g66
S'/media/miguel/WORK/web2py/gluon/dal/adapters/base.py'
p195
sg68
(dp196
S'a'
S"('CREATE TABLE tabla6(\\n    id INTEGER PRIMARY KEY ...\\n    kilogramos CHAR(512),\\n    valor CHAR(512)\\n);',)"
p197
sS'self'
p198
S'<gluon.dal.adapters.sqlite.SQLiteAdapter object>'
p199
sS'b'
g21
sS'self.log_execute'
p200
S'<bound method SQLiteAdapter.log_execute of <gluon.dal.adapters.sqlite.SQLiteAdapter object>>'
p201
ssg74
I1319
sg75
(dp202
I1314
S'        self.db._timings.append((command,time.time()-t0))'
p203
sI1315
S'        del self.db._timings[:-TIMINGSSIZE]'
p204
sI1316
S'        return ret'
p205
sI1317
S''
sI1318
S'    def execute(self, *a, **b):'
p206
sI1319
S'        return self.log_execute(*a, **b)'
p207
sI1320
S''
sI1321
S'    def represent(self, obj, fieldtype):'
p208
sI1322
S'        field_is_type = fieldtype.startswith'
p209
sI1323
S'        if isinstance(obj, CALLABLETYPES):'
p210
ssg87
S"(self=<gluon.dal.adapters.sqlite.SQLiteAdapter object>, *a=('CREATE TABLE tabla6(\\n    id INTEGER PRIMARY KEY ...\\n    kilogramos CHAR(512),\\n    valor CHAR(512)\\n);',), **b={})"
p211
sg89
S'execute'
p212
sa(dp213
g66
S'/media/miguel/WORK/web2py/gluon/dal/adapters/base.py'
p214
sg68
(dp215
S'a'
S"('CREATE TABLE tabla6(\\n    id INTEGER PRIMARY KEY ...\\n    kilogramos CHAR(512),\\n    valor CHAR(512)\\n);',)"
p216
sS'b'
g21
sS'self'
p217
S'<gluon.dal.adapters.sqlite.SQLiteAdapter object>'
p218
sS'ret'
p219
g95
sS'self.cursor'
p220
S'<sqlite3.Cursor object>'
p221
sS'command'
p222
S"'CREATE TABLE tabla6(\\n    id INTEGER PRIMARY KEY ...\\n    kilogramos CHAR(512),\\n    valor CHAR(512)\\n);'"
p223
sS'self.cursor.execute'
p224
S'<built-in method execute of sqlite3.Cursor object>'
p225
ssg74
I1313
sg75
(dp226
I1312
S'        t0 = time.time()'
p227
sI1313
S'        ret = self.cursor.execute(command, *a[1:], **b)'
p228
sI1314
S'        self.db._timings.append((command,time.time()-t0))'
p229
sI1315
S'        del self.db._timings[:-TIMINGSSIZE]'
p230
sI1316
S'        return ret'
p231
sI1317
S''
sI1308
S'            command = self.filter_sql_command(command)'
p232
sI1309
S'        if self.db._debug:'
p233
sI1310
S"            LOGGER.debug('SQL: %s' % command)"
p234
sI1311
S'        self.db._lastsql = command'
p235
ssg87
S"(self=<gluon.dal.adapters.sqlite.SQLiteAdapter object>, *a=('CREATE TABLE tabla6(\\n    id INTEGER PRIMARY KEY ...\\n    kilogramos CHAR(512),\\n    valor CHAR(512)\\n);',), **b={})"
p236
sg89
S'log_execute'
p237
sasS'pyver'
p238
S'Python 2.7.11+: /usr/bin/python2.7 (prefix: /usr)'
p239
sS'session'
p240
g61
(S's\x1a\x00\x00\x00<div><table></table></div>'
tRp241
sS'etype'
p242
S"<class 'sqlite3.OperationalError'>"
p243
sS'date'
p244
S'Thu May  5 22:15:24 2016'
p245
sS'response'
p246
g61
(S's\xdc\x17\x00\x00<div><table><tr><td style="font-weight:bold;vertical-align:top;">body</td><td style="vertical-align:top;">:</td><td><div>&lt;cStringIO.StringO object at 0x7f533a290340&gt;</div></td></tr><tr><td style="font-weight:bold;vertical-align:top;">cookies</td><td style="vertical-align:top;">:</td><td><div><table><tr><td style="font-weight:bold;vertical-align:top;">session_id_seeda</td><td style="vertical-align:top;">:</td><td><div>10.53.3.202-c3e695f5-054e-4da7-ae1b-de150a0b2694<table><tr><td style="font-weight:bold;vertical-align:top;">comment</td><td style="vertical-align:top;">:</td><td><div></div></td></tr><tr><td style="font-weight:bold;vertical-align:top;">domain</td><td style="vertical-align:top;">:</td><td><div></div></td></tr><tr><td style="font-weight:bold;vertical-align:top;">expires</td><td style="vertical-align:top;">:</td><td><div></div></td></tr><tr><td style="font-weight:bold;vertical-align:top;">httponly</td><td style="vertical-align:top;">:</td><td><div></div></td></tr><tr><td style="font-weight:bold;vertical-align:top;">max-age</td><td style="vertical-align:top;">:</td><td><div></div></td></tr><tr><td style="font-weight:bold;vertical-align:top;">path</td><td style="vertical-align:top;">:</td><td><div>/</div></td></tr><tr><td style="font-weight:bold;vertical-align:top;">secure</td><td style="vertical-align:top;">:</td><td><div></div></td></tr><tr><td style="font-weight:bold;vertical-align:top;">version</td><td style="vertical-align:top;">:</td><td><div></div></td></tr></table></div></td></tr></table></div></td></tr><tr><td style="font-weight:bold;vertical-align:top;">delimiters</td><td style="vertical-align:top;">:</td><td><div><table><tr><td><div>{{</div></td></tr><tr><td><div>}}</div></td></tr></table></div></td></tr><tr><td style="font-weight:bold;vertical-align:top;">files</td><td style="vertical-align:top;">:</td><td><div><table></table></div></td></tr><tr><td style="font-weight:bold;vertical-align:top;">flash</td><td style="vertical-align:top;">:</td><td><div></div></td></tr><tr><td style="font-weight:bold;vertical-align:top;">form_label_separator</td><td style="vertical-align:top;">:</td><td><div>: </div></td></tr><tr><td style="font-weight:bold;vertical-align:top;">formstyle</td><td style="vertical-align:top;">:</td><td><div>table3cols</div></td></tr><tr><td style="font-weight:bold;vertical-align:top;">generic_patterns</td><td style="vertical-align:top;">:</td><td><div><table></table></div></td></tr><tr><td style="font-weight:bold;vertical-align:top;">headers</td><td style="vertical-align:top;">:</td><td><div><table><tr><td style="font-weight:bold;vertical-align:top;">X-Powered-By</td><td style="vertical-align:top;">:</td><td><div>web2py</div></td></tr></table></div></td></tr><tr><td style="font-weight:bold;vertical-align:top;">menu</td><td style="vertical-align:top;">:</td><td><div><table></table></div></td></tr><tr><td style="font-weight:bold;vertical-align:top;">meta</td><td style="vertical-align:top;">:</td><td><div><table></table></div></td></tr><tr><td style="font-weight:bold;vertical-align:top;">models_to_run</td><td style="vertical-align:top;">:</td><td><div><table><tr><td><div>^\\w+\\.py$</div></td></tr><tr><td><div>^default/\\w+\\.py$</div></td></tr><tr><td><div>^default/tabla2/\\w+\\.py$</div></td></tr></table></div></td></tr><tr><td style="font-weight:bold;vertical-align:top;">postprocessing</td><td style="vertical-align:top;">:</td><td><div><table></table></div></td></tr><tr><td style="font-weight:bold;vertical-align:top;">session_client</td><td style="vertical-align:top;">:</td><td><div>10.53.3.202</div></td></tr><tr><td style="font-weight:bold;vertical-align:top;">session_cookie_compression_level</td><td style="vertical-align:top;">:</td><td><div>None</div></td></tr><tr><td style="font-weight:bold;vertical-align:top;">session_cookie_expires</td><td style="vertical-align:top;">:</td><td><div>None</div></td></tr><tr><td style="font-weight:bold;vertical-align:top;">session_cookie_key</td><td style="vertical-align:top;">:</td><td><div>None</div></td></tr><tr><td style="font-weight:bold;vertical-align:top;">session_data_name</td><td style="vertical-align:top;">:</td><td><div>session_data_seeda</div></td></tr><tr><td style="font-weight:bold;vertical-align:top;">session_file</td><td style="vertical-align:top;">:</td><td><div>&lt;open file &#x27;/media/miguel/WORK/web2py/applications/seeda/sessions/15d/050/10.53.3.202-c3e695f5-054e-4da7-ae1b-de150a0b2694&#x27;, mode &#x27;rb+&#x27; at 0x7f533b1f6f60&gt;</div></td></tr><tr><td style="font-weight:bold;vertical-align:top;">session_filename</td><td style="vertical-align:top;">:</td><td><div>/media/miguel/WORK/web2py/applications/seeda/sessions/10.53.3.202-c3e695f5-054e-4da7-ae1b-de150a0b2694</div></td></tr><tr><td style="font-weight:bold;vertical-align:top;">session_hash</td><td style="vertical-align:top;">:</td><td><div>d04ff56763d5fa14baa0956d31217662</div></td></tr><tr><td style="font-weight:bold;vertical-align:top;">session_id</td><td style="vertical-align:top;">:</td><td><div>10.53.3.202-c3e695f5-054e-4da7-ae1b-de150a0b2694</div></td></tr><tr><td style="font-weight:bold;vertical-align:top;">session_id_name</td><td style="vertical-align:top;">:</td><td><div>session_id_seeda</div></td></tr><tr><td style="font-weight:bold;vertical-align:top;">session_locked</td><td style="vertical-align:top;">:</td><td><div>True</div></td></tr><tr><td style="font-weight:bold;vertical-align:top;">session_masterapp</td><td style="vertical-align:top;">:</td><td><div>seeda</div></td></tr><tr><td style="font-weight:bold;vertical-align:top;">session_new</td><td style="vertical-align:top;">:</td><td><div>False</div></td></tr><tr><td style="font-weight:bold;vertical-align:top;">session_storage_type</td><td style="vertical-align:top;">:</td><td><div>file</div></td></tr><tr><td style="font-weight:bold;vertical-align:top;">status</td><td style="vertical-align:top;">:</td><td><div>200</div></td></tr><tr><td style="font-weight:bold;vertical-align:top;">view</td><td style="vertical-align:top;">:</td><td><div>default/tabla2.html</div></td></tr></table></div>'
tRp247
sS'locals'
p248
(dp249
S'a'
S"('CREATE TABLE tabla6(\\n    id INTEGER PRIMARY KEY ...\\n    kilogramos CHAR(512),\\n    valor CHAR(512)\\n);',)"
p250
sS'self'
p251
S'<gluon.dal.adapters.sqlite.SQLiteAdapter object>'
p252
sS'b'
g21
sS'command'
p253
S"'CREATE TABLE tabla6(\\n    id INTEGER PRIMARY KEY ...\\n    kilogramos CHAR(512),\\n    valor CHAR(512)\\n);'"
p254
sS't0'
p255
S'1462500924.63342'
p256
sssS'traceback'
p257
S'Traceback (most recent call last):\n  File "/media/miguel/WORK/web2py/gluon/restricted.py", line 224, in restricted\n    exec ccode in environment\n  File "/media/miguel/WORK/web2py/applications/seeda/models/db_tables.py", line 182, in <module>\n    Field(\'valor\',\'string\',default=\'0\'))\n  File "/media/miguel/WORK/web2py/gluon/dal/base.py", line 787, in define_table\n    table = self.lazy_define_table(tablename,*fields,**args)\n  File "/media/miguel/WORK/web2py/gluon/dal/base.py", line 824, in lazy_define_table\n    polymodel=polymodel)\n  File "/media/miguel/WORK/web2py/gluon/dal/adapters/base.py", line 459, in create_table\n    self.create_sequence_and_triggers(query,table)\n  File "/media/miguel/WORK/web2py/gluon/dal/adapters/base.py", line 1300, in create_sequence_and_triggers\n    self.execute(query)\n  File "/media/miguel/WORK/web2py/gluon/dal/adapters/base.py", line 1319, in execute\n    return self.log_execute(*a, **b)\n  File "/media/miguel/WORK/web2py/gluon/dal/adapters/base.py", line 1313, in log_execute\n    ret = self.cursor.execute(command, *a[1:], **b)\nOperationalError: table tabla6 already exists\n'
p258
s.