(dp1
S'output'
p2
S"<type 'exceptions.AttributeError'> 'Table' object has no attribute 'id_categoria'"
p3
sS'layer'
p4
S'/media/miguel/WORK/Proyectos/Python/web2py/applications/seunova/controllers/administrar.py'
p5
sS'code'
p6
S'# coding=utf-8\r\n\r\n\r\n__author__ = \'Miguel Antonio\'\r\n\r\nmostrarmenu2()\r\n\r\ndb.evaluaciones.evaluacion.writable = False\r\ndb.evaluaciones.delphi.writable = False\r\ndb.aspectossolicitud.evaluacionfinal.writable = False\r\n\r\n\r\ndef index():\r\n    redirect(URL(c=\'default\', f=\'index\'))\r\n    return\r\n\r\n\r\n@auth.requires_membership(role="Administrador")\r\ndef usuarios():\r\n    notificacion = request.args(0)\r\n    if notificacion == \'1\':\r\n        response.flash = "Rol cambiado"\r\n    form = SQLFORM.grid(db.auth_user, paginate=0, links=[dict(header="",\r\n                                                              body=lambda row: A(\'Editar grupo\',\r\n                                                                                 _href=URL(\r\n                                                                                     \'Editar_grupo\',\r\n                                                                                     args=row.id)))], create=1,\r\n                        editable=1, user_signature=0)\r\n    return dict(form=form)\r\n\r\n\r\n@auth.requires_membership(role="Administrador")\r\ndef Editar_grupo():\r\n    id_user = request.args(0)\r\n    t = db.auth_membership\r\n    consulta = db(t.user_id == id_user).select(t.group_id)\r\n    for c in consulta:\r\n        t.group_id.default = c.group_id\r\n    t.user_id.default = id_user\r\n    form1 = SQLFORM(t, submit_button=\'Cambiar\', showid=0)\r\n    if form1.process().accepted:\r\n        existe = db((t.user_id == form1.vars.user_id)).count()\r\n        if existe > 1:\r\n            db((t.user_id == form1.vars.user_id) & (t.group_id != form1.vars.group_id)).delete()\r\n        redirect(URL(\'usuarios\', args=1))\r\n    return dict(form1=form1)\r\n\r\n\r\n@auth.requires_membership(role="Administrador")\r\ndef categorias():\r\n    db.aspectossolicitud.id_aspecto.writable = 0\r\n    db.aspectossolicitud.id_solicitudes.writable = 0\r\n    db.aspectossolicitud.evaluacionfinal.writable = 0\r\n    form2 = SQLFORM.grid(db.categorias, paginate=10)\r\n    return dict(form2=form2)\r\n\r\n\r\n@auth.requires_membership(role="Administrador")\r\ndef aspectos():\r\n    form3 = SQLFORM.grid(db.aspectos, paginate=10)\r\n    return dict(form3=form3)\r\n\r\n\r\n@auth.requires_membership(role="Administrador")\r\ndef solicitudes():\r\n    mostrar_solicitudes = (db.solicitudes.estado == \'Pendiente\') | (db.solicitudes.estado == \'Cancelada\') | (\r\n        db.solicitudes.estado == \'Rechazada\')\r\n    db.solicitudes.estado.writable = True\r\n    db.solicitudes.estado.readable = True\r\n    db.solicitudes.publico.writable = False\r\n    db.solicitudes.observaciones.writable = True\r\n    db.solicitudes.estado.requires = IS_IN_SET([\'Evalu\xc3\xa1ndose\', \'Rechazada\'])\r\n    form4 = SQLFORM.grid(mostrar_solicitudes, create=False, paginate=10, links=[dict(header="",\r\n                                                                                     body=lambda row: A(\r\n                                                                                         T(\'Aspects to evaluate\'),\r\n                                                                                         _href=URL(\r\n                                                                                             \'aspectos_por_solicitud\',\r\n                                                                                             args=row.id)))])\r\n    return dict(form4=form4)\r\n\r\n\r\n@auth.requires_membership(role="Administrador")\r\ndef aspectos_por_solicitud():\r\n    id_solicitud = request.args(0)\r\n    db.aspectossolicitud.id_solicitudes.writable = False\r\n    if id_solicitud == \'view\' or id_solicitud == \'delete\' or id_solicitud == \'edit\' or id_solicitud == \'new\':\r\n        id_solicitud = request.args(2)\r\n        consulta = (db.aspectossolicitud.id == id_solicitud)\r\n        aspectos_seleccionados = SQLFORM.grid(consulta, user_signature=False)\r\n    else:\r\n        consulta = (db.aspectossolicitud.id_solicitudes == id_solicitud)\r\n        conteo = db((db.solicitudes.id == id_solicitud) & ((db.solicitudes.estado == "Pendiente") | (\r\n            db.solicitudes.estado == "Rechazada") | (db.solicitudes.estado == "Cancelada"))).count()\r\n        aspectos_seleccionados = SQLFORM.grid(consulta, user_signature=False, create=0, editable=0, deletable=0)\r\n        if conteo > 0:\r\n            aspectos_seleccionados = SQLFORM.grid(consulta, user_signature=False, create=0, editable=0,\r\n                                                  links=[dict(header="",\r\n                                                              body=lambda row: A(\'Agregar aspecto\',\r\n                                                                                 _href=URL(\'agregar_aspectos\',\r\n                                                                                           args=(row.id_solicitudes,\r\n                                                                                                 row.id_aspecto)))),\r\n                                                         dict(header="",\r\n                                                              body=lambda row: A(\'Editar aspecto\',\r\n                                                                                 _href=URL(\'editar_aspecto\',\r\n                                                                                           args=(row.id_solicitudes,\r\n                                                                                                 row.id_aspecto))))])\r\n            return dict(aspectos_seleccionados=aspectos_seleccionados)\r\n\r\n\r\ndef agregar_aspectos():\r\n    db.aspectossolicitud.id_solicitudes.writable = 0\r\n    id_solicitud = request.args(0)\r\n    aspecto = request.args(1)\r\n    aspectos = db(db.aspectos.id == aspecto).select(db.aspectos.id_categoria)\r\n    for a in aspectos:\r\n        aspecto = a.id_categoria\r\n    t = db.aspectossolicitud\r\n    t.id_solicitudes.default = id_solicitud\r\n    t.id_aspecto.requires = IS_IN_DB(db(\r\n        (db.aspectos.id_categoria == aspecto)\r\n    ), db.aspectos.id, \'%(aspecto)s\')\r\n    form1 = SQLFORM(t, submit_button=\'Insertar\', showid=0)\r\n    form1.add_button(\'Regresar\', URL(\'aspectos_por_solicitud\', args=id_solicitud))\r\n    if form1.process(keepvalues=True).accepted:\r\n        existe = db((db.aspectossolicitud.id_aspecto == form1.vars.id_aspecto) & (\r\n            db.aspectossolicitud.id_solicitudes == id_solicitud)).count()\r\n        response.flash = \'Aspecto cambiado\'\r\n        if existe > 1:\r\n            response.flash = \'Error. Ya hab\xc3\xada agregado ese aspecto anteriormente\'\r\n            x = form1.vars.id\r\n            db(db.aspectossolicitud.id == x).delete()\r\n    return dict(form1=form1)\r\n\r\n\r\ndef editar_aspecto():\r\n    db.aspectossolicitud.id_solicitudes.writable = 0\r\n    id_solicitud = request.args(0)\r\n    aspecto = request.args(1)\r\n    print(id)\r\n    aspectos = db(db.aspectos.id == aspecto).select(db.aspectos.id_categoria)\r\n    for a in aspectos:\r\n        x = a.id_categoria\r\n    t = db.aspectossolicitud\r\n    t.id_solicitudes.default = id_solicitud\r\n    t.id_aspecto.default = aspecto\r\n    t.id_aspecto.requires = IS_IN_DB(db(\r\n        (db.aspectos.id_categoria == x)\r\n    ), db.aspectos.id, \'%(aspecto)s\')\r\n    form1 = SQLFORM(t, submit_button=\'Cambiar\', showid=0)\r\n    form1.add_button(\'Regresar\', URL(\'aspectos_por_solicitud\', args=id_solicitud))\r\n    if form1.process(keepvalues=True).accepted:\r\n        existe = db((db.aspectossolicitud.id_aspecto == form1.vars.id_aspecto) & (\r\n            db.aspectossolicitud.id_solicitudes == id_solicitud)).count()\r\n        response.flash = \'Aspecto cambiado\'\r\n        if existe > 1:\r\n            response.flash = \'Error. Ya hab\xc3\xada agregado ese aspecto anteriormente\'\r\n            x = form1.vars.id\r\n            db(db.aspectossolicitud.id == x).delete()\r\n        else:\r\n            db((db.aspectossolicitud.id == id_solicitud) and (db.aspectossolicitud.id_aspecto == aspecto)).delete()\r\n    return dict(form1=form1)\r\n\nresponse._vars=response._caller(editar_aspecto)\n'
p7
sS'snapshot'
p8
(dp9
S'exception'
p10
(dp11
S'__hash__'
p12
S"<method-wrapper '__hash__' of exceptions.AttributeError object>"
p13
sS'__setattr__'
p14
S"<method-wrapper '__setattr__' of exceptions.AttributeError object>"
p15
sS'__reduce_ex__'
p16
S'<built-in method __reduce_ex__ of exceptions.AttributeError object>'
p17
sS'__getslice__'
p18
S"<method-wrapper '__getslice__' of exceptions.AttributeError object>"
p19
sS'__getitem__'
p20
S"<method-wrapper '__getitem__' of exceptions.AttributeError object>"
p21
sS'__setstate__'
p22
S'<built-in method __setstate__ of exceptions.AttributeError object>'
p23
sS'args'
p24
S'("\'Table\' object has no attribute \'id_categoria\'",)'
p25
sS'__reduce__'
p26
S'<built-in method __reduce__ of exceptions.AttributeError object>'
p27
sS'__str__'
p28
S"<method-wrapper '__str__' of exceptions.AttributeError object>"
p29
sS'__format__'
p30
S'<built-in method __format__ of exceptions.AttributeError object>'
p31
sS'__getattribute__'
p32
S"<method-wrapper '__getattribute__' of exceptions.AttributeError object>"
p33
sS'__class__'
p34
S"<type 'exceptions.AttributeError'>"
p35
sS'__unicode__'
p36
S'<built-in method __unicode__ of exceptions.AttributeError object>'
p37
sS'__delattr__'
p38
S"<method-wrapper '__delattr__' of exceptions.AttributeError object>"
p39
sS'__subclasshook__'
p40
S'<built-in method __subclasshook__ of type object>'
p41
sS'__repr__'
p42
S"<method-wrapper '__repr__' of exceptions.AttributeError object>"
p43
sS'__dict__'
p44
S'{}'
p45
sS'__sizeof__'
p46
S'<built-in method __sizeof__ of exceptions.AttributeError object>'
p47
sS'__doc__'
p48
S"'Attribute not found.'"
p49
sS'__init__'
p50
S"<method-wrapper '__init__' of exceptions.AttributeError object>"
p51
sS'__new__'
p52
S'<built-in method __new__ of type object>'
p53
ssS'evalue'
p54
S"'Table' object has no attribute 'id_categoria'"
p55
sS'request'
p56
cgluon.html
XML_unpickle
p57
(S's[R\x00\x00<div><table><tr><td style="font-weight:bold;vertical-align:top;">ajax</td><td style="vertical-align:top;">:</td><td><div>False</div></td></tr><tr><td style="font-weight:bold;vertical-align:top;">application</td><td style="vertical-align:top;">:</td><td><div>seunova</div></td></tr><tr><td style="font-weight:bold;vertical-align:top;">args</td><td style="vertical-align:top;">:</td><td><div><table><tr><td><div>1</div></td></tr><tr><td><div>1</div></td></tr></table></div></td></tr><tr><td style="font-weight:bold;vertical-align:top;">cid</td><td style="vertical-align:top;">:</td><td><div>None</div></td></tr><tr><td style="font-weight:bold;vertical-align:top;">client</td><td style="vertical-align:top;">:</td><td><div>10.53.3.233</div></td></tr><tr><td style="font-weight:bold;vertical-align:top;">controller</td><td style="vertical-align:top;">:</td><td><div>administrar</div></td></tr><tr><td style="font-weight:bold;vertical-align:top;">cookies</td><td style="vertical-align:top;">:</td><td><div><table><tr><td style="font-weight:bold;vertical-align:top;">session_id_seunova</td><td style="vertical-align:top;">:</td><td><div>10.53.3.233-8e6f939f-4907-4f22-a038-91cb00f8ba93<table><tr><td style="font-weight:bold;vertical-align:top;">comment</td><td style="vertical-align:top;">:</td><td><div></div></td></tr><tr><td style="font-weight:bold;vertical-align:top;">domain</td><td style="vertical-align:top;">:</td><td><div></div></td></tr><tr><td style="font-weight:bold;vertical-align:top;">expires</td><td style="vertical-align:top;">:</td><td><div></div></td></tr><tr><td style="font-weight:bold;vertical-align:top;">httponly</td><td style="vertical-align:top;">:</td><td><div></div></td></tr><tr><td style="font-weight:bold;vertical-align:top;">max-age</td><td style="vertical-align:top;">:</td><td><div></div></td></tr><tr><td style="font-weight:bold;vertical-align:top;">path</td><td style="vertical-align:top;">:</td><td><div></div></td></tr><tr><td style="font-weight:bold;vertical-align:top;">secure</td><td style="vertical-align:top;">:</td><td><div></div></td></tr><tr><td style="font-weight:bold;vertical-align:top;">version</td><td style="vertical-align:top;">:</td><td><div></div></td></tr></table></div></td></tr></table></div></td></tr><tr><td style="font-weight:bold;vertical-align:top;">env</td><td style="vertical-align:top;">:</td><td><div><table><tr><td style="font-weight:bold;vertical-align:top;">HTTP_ACCEPT</td><td style="vertical-align:top;">:</td><td><div>text/html,application/xhtml+xml,application/xml;q=0.9,*/*;q=0.8</div></td></tr><tr><td style="font-weight:bold;vertical-align:top;">HTTP_ACCEPT_ENCODING</td><td style="vertical-align:top;">:</td><td><div>gzip, deflate</div></td></tr><tr><td style="font-weight:bold;vertical-align:top;">HTTP_ACCEPT_LANGUAGE</td><td style="vertical-align:top;">:</td><td><div>en-US,en;q=0.5</div></td></tr><tr><td style="font-weight:bold;vertical-align:top;">HTTP_CONNECTION</td><td style="vertical-align:top;">:</td><td><div>keep-alive</div></td></tr><tr><td style="font-weight:bold;vertical-align:top;">HTTP_COOKIE</td><td style="vertical-align:top;">:</td><td><div>session_id_seunova=10.53.3.233-8e6f939f-4907-4f22-a038-91cb00f8ba93</div></td></tr><tr><td style="font-weight:bold;vertical-align:top;">HTTP_HOST</td><td style="vertical-align:top;">:</td><td><div>10.53.3.233:8000</div></td></tr><tr><td style="font-weight:bold;vertical-align:top;">HTTP_REFERER</td><td style="vertical-align:top;">:</td><td><div>http://10.53.3.233:8000/seunova/administrar/aspectos_por_solicitud/1</div></td></tr><tr><td style="font-weight:bold;vertical-align:top;">HTTP_USER_AGENT</td><td style="vertical-align:top;">:</td><td><div>Mozilla/5.0 (X11; Ubuntu; Linux x86_64; rv:46.0) Gecko/20100101 Firefox/46.0</div></td></tr><tr><td style="font-weight:bold;vertical-align:top;">PATH_INFO</td><td style="vertical-align:top;">:</td><td><div>/seunova/administrar/editar_aspecto/1/1</div></td></tr><tr><td style="font-weight:bold;vertical-align:top;">QUERY_STRING</td><td style="vertical-align:top;">:</td><td><div></div></td></tr><tr><td style="font-weight:bold;vertical-align:top;">REMOTE_ADDR</td><td style="vertical-align:top;">:</td><td><div>10.53.3.233</div></td></tr><tr><td style="font-weight:bold;vertical-align:top;">REMOTE_PORT</td><td style="vertical-align:top;">:</td><td><div>52240</div></td></tr><tr><td style="font-weight:bold;vertical-align:top;">REQUEST_METHOD</td><td style="vertical-align:top;">:</td><td><div>GET</div></td></tr><tr><td style="font-weight:bold;vertical-align:top;">SCRIPT_NAME</td><td style="vertical-align:top;">:</td><td><div></div></td></tr><tr><td style="font-weight:bold;vertical-align:top;">SERVER_NAME</td><td style="vertical-align:top;">:</td><td><div>miguel-asus-X555LAB</div></td></tr><tr><td style="font-weight:bold;vertical-align:top;">SERVER_PORT</td><td style="vertical-align:top;">:</td><td><div>8000</div></td></tr><tr><td style="font-weight:bold;vertical-align:top;">SERVER_PROTOCOL</td><td style="vertical-align:top;">:</td><td><div>HTTP/1.1</div></td></tr><tr><td style="font-weight:bold;vertical-align:top;">SERVER_SOFTWARE</td><td style="vertical-align:top;">:</td><td><div>Rocket 1.2.6</div></td></tr><tr><td style="font-weight:bold;vertical-align:top;">app_folders</td><td style="vertical-align:top;">:</td><td><div>set([&#x27;/media/miguel/WORK/Proyectos/Python/web2py/applications/seunova/&#x27;, &#x27;/media/miguel/WORK/Proyectos/Python/web2py/applications/admin/&#x27;, &#x27;/media/miguel/WORK/Proyectos/Python/web2py/applications/welcome/&#x27;])</div></td></tr><tr><td style="font-weight:bold;vertical-align:top;">applications_parent</td><td style="vertical-align:top;">:</td><td><div>/media/miguel/WORK/Proyectos/Python/web2py</div></td></tr><tr><td style="font-weight:bold;vertical-align:top;">cmd_args</td><td style="vertical-align:top;">:</td><td><div><table></table></div></td></tr><tr><td style="font-weight:bold;vertical-align:top;">cmd_options</td><td style="vertical-align:top;">:</td><td><div>&lt;Values at 0x7f18a024ddd0: {&#x27;verbose&#x27;: False, &#x27;ip&#x27;: &#x27;127.0.0.1&#x27;, &#x27;debuglevel&#x27;: 30, &#x27;with_scheduler&#x27;: False, &#x27;ips&#x27;: [&#x27;127.0.1.1&#x27;], &#x27;shutdown_timeout&#x27;: 5, &#x27;taskbar&#x27;: False, &#x27;with_coverage&#x27;: False, &#x27;scheduler_groups&#x27;: None, &#x27;port&#x27;: 8000, &#x27;maxthreads&#x27;: None, &#x27;softcron&#x27;: False, &#x27;server_name&#x27;: &#x27;miguel-asus-X555LAB&#x27;, &#x27;bpython&#x27;: False, &#x27;nogui&#x27;: False, &#x27;pid_filename&#x27;: &#x27;httpserver.pid&#x27;, &#x27;extcron&#x27;: False, &#x27;runcron&#x27;: False, &#x27;run_system_tests&#x27;: False, &#x27;test&#x27;: None, &#x27;folder&#x27;: &#x27;/media/miguel/WORK/Proyectos/Python/web2py&#x27;, &#x27;config&#x27;: &#x27;&#x27;, &#x27;minthreads&#x27;: None, &#x27;shell&#x27;: None, &#x27;run&#x27;: &#x27;&#x27;, &#x27;log_filename&#x27;: &#x27;httpserver.log&#x27;, &#x27;profiler_dir&#x27;: None, &#x27;args&#x27;: [&#x27;&#x27;], &#x27;socket_timeout&#x27;: 5, &#x27;ssl_ca_certificate&#x27;: None, &#x27;scheduler&#x27;: None, &#x27;interfaces&#x27;: None, &#x27;ssl_private_key&#x27;: &#x27;&#x27;, &#x27;gae&#x27;: None, &#x27;password&#x27;: &#x27;&lt;ask&gt;&#x27;, &#x27;request_queue_size&#x27;: 5, &#x27;ssl_certificate&#x27;: &#x27;&#x27;, &#x27;cronjob&#x27;: False, &#x27;numthreads&#x27;: None, &#x27;quiet&#x27;: False, &#x27;import_models&#x27;: False, &#x27;timeout&#x27;: 10, &#x27;plain&#x27;: False, &#x27;nobanner&#x27;: False}&gt;</div></td></tr><tr><td style="font-weight:bold;vertical-align:top;">db_sessions</td><td style="vertical-align:top;">:</td><td><div>set([])</div></td></tr><tr><td style="font-weight:bold;vertical-align:top;">debugging</td><td style="vertical-align:top;">:</td><td><div>False</div></td></tr><tr><td style="font-weight:bold;vertical-align:top;">gluon_parent</td><td style="vertical-align:top;">:</td><td><div>/media/miguel/WORK/Proyectos/Python/web2py</div></td></tr><tr><td style="font-weight:bold;vertical-align:top;">http_accept</td><td style="vertical-align:top;">:</td><td><div>text/html,application/xhtml+xml,application/xml;q=0.9,*/*;q=0.8</div></td></tr><tr><td style="font-weight:bold;vertical-align:top;">http_accept_encoding</td><td style="vertical-align:top;">:</td><td><div>gzip, deflate</div></td></tr><tr><td style="font-weight:bold;vertical-align:top;">http_accept_language</td><td style="vertical-align:top;">:</td><td><div>en-US,en;q=0.5</div></td></tr><tr><td style="font-weight:bold;vertical-align:top;">http_connection</td><td style="vertical-align:top;">:</td><td><div>keep-alive</div></td></tr><tr><td style="font-weight:bold;vertical-align:top;">http_cookie</td><td style="vertical-align:top;">:</td><td><div>session_id_seunova=10.53.3.233-8e6f939f-4907-4f22-a038-91cb00f8ba93</div></td></tr><tr><td style="font-weight:bold;vertical-align:top;">http_host</td><td style="vertical-align:top;">:</td><td><div>10.53.3.233:8000</div></td></tr><tr><td style="font-weight:bold;vertical-align:top;">http_referer</td><td style="vertical-align:top;">:</td><td><div>http://10.53.3.233:8000/seunova/administrar/aspectos_por_solicitud/1</div></td></tr><tr><td style="font-weight:bold;vertical-align:top;">http_user_agent</td><td style="vertical-align:top;">:</td><td><div>Mozilla/5.0 (X11; Ubuntu; Linux x86_64; rv:46.0) Gecko/20100101 Firefox/46.0</div></td></tr><tr><td style="font-weight:bold;vertical-align:top;">is_jython</td><td style="vertical-align:top;">:</td><td><div>False</div></td></tr><tr><td style="font-weight:bold;vertical-align:top;">is_pypy</td><td style="vertical-align:top;">:</td><td><div>False</div></td></tr><tr><td style="font-weight:bold;vertical-align:top;">is_source</td><td style="vertical-align:top;">:</td><td><div>True</div></td></tr><tr><td style="font-weight:bold;vertical-align:top;">local_hosts</td><td style="vertical-align:top;">:</td><td><div><table><tr><td><div>miguel-asus-X555LAB</div></td></tr><tr><td><div>::1</div></td></tr><tr><td><div>127.0.1.1</div></td></tr><tr><td><div>::ffff:127.0.0.1</div></td></tr><tr><td><div>127.0.0.1</div></td></tr></table></div></td></tr><tr><td style="font-weight:bold;vertical-align:top;">path_info</td><td style="vertical-align:top;">:</td><td><div>/seunova/administrar/editar_aspecto/1/1</div></td></tr><tr><td style="font-weight:bold;vertical-align:top;">query_string</td><td style="vertical-align:top;">:</td><td><div></div></td></tr><tr><td style="font-weight:bold;vertical-align:top;">remote_addr</td><td style="vertical-align:top;">:</td><td><div>10.53.3.233</div></td></tr><tr><td style="font-weight:bold;vertical-align:top;">remote_port</td><td style="vertical-align:top;">:</td><td><div>52240</div></td></tr><tr><td style="font-weight:bold;vertical-align:top;">request_method</td><td style="vertical-align:top;">:</td><td><div>GET</div></td></tr><tr><td style="font-weight:bold;vertical-align:top;">request_uri</td><td style="vertical-align:top;">:</td><td><div>/seunova/administrar/editar_aspecto/1/1</div></td></tr><tr><td style="font-weight:bold;vertical-align:top;">script_name</td><td style="vertical-align:top;">:</td><td><div></div></td></tr><tr><td style="font-weight:bold;vertical-align:top;">server_name</td><td style="vertical-align:top;">:</td><td><div>miguel-asus-X555LAB</div></td></tr><tr><td style="font-weight:bold;vertical-align:top;">server_port</td><td style="vertical-align:top;">:</td><td><div>8000</div></td></tr><tr><td style="font-weight:bold;vertical-align:top;">server_protocol</td><td style="vertical-align:top;">:</td><td><div>HTTP/1.1</div></td></tr><tr><td style="font-weight:bold;vertical-align:top;">server_software</td><td style="vertical-align:top;">:</td><td><div>Rocket 1.2.6</div></td></tr><tr><td style="font-weight:bold;vertical-align:top;">web2py_path</td><td style="vertical-align:top;">:</td><td><div>/media/miguel/WORK/Proyectos/Python/web2py</div></td></tr><tr><td style="font-weight:bold;vertical-align:top;">web2py_version</td><td style="vertical-align:top;">:</td><td><div>2.9.12-stable+timestamp.2015.01.17.06.11.03</div></td></tr><tr><td style="font-weight:bold;vertical-align:top;">wsgi.errors</td><td style="vertical-align:top;">:</td><td><div>&lt;open file &#x27;&lt;stderr&gt;&#x27;, mode &#x27;w&#x27; at 0x7f18a6aaf1e0&gt;</div></td></tr><tr><td style="font-weight:bold;vertical-align:top;">wsgi.file_wrapper</td><td style="vertical-align:top;">:</td><td><div>&lt;class wsgiref.util.FileWrapper at 0x7f18a02b6390&gt;</div></td></tr><tr><td style="font-weight:bold;vertical-align:top;">wsgi.input</td><td style="vertical-align:top;">:</td><td><div>&lt;socket._fileobject object at 0x7f185f22f9d0&gt;</div></td></tr><tr><td style="font-weight:bold;vertical-align:top;">wsgi.multiprocess</td><td style="vertical-align:top;">:</td><td><div>False</div></td></tr><tr><td style="font-weight:bold;vertical-align:top;">wsgi.multithread</td><td style="vertical-align:top;">:</td><td><div>True</div></td></tr><tr><td style="font-weight:bold;vertical-align:top;">wsgi.run_once</td><td style="vertical-align:top;">:</td><td><div>False</div></td></tr><tr><td style="font-weight:bold;vertical-align:top;">wsgi.url_scheme</td><td style="vertical-align:top;">:</td><td><div>http</div></td></tr><tr><td style="font-weight:bold;vertical-align:top;">wsgi.version</td><td style="vertical-align:top;">:</td><td><div><table><tr><td><div>1</div></td></tr><tr><td><div>0</div></td></tr></table></div></td></tr><tr><td style="font-weight:bold;vertical-align:top;">wsgi_errors</td><td style="vertical-align:top;">:</td><td><div>&lt;open file &#x27;&lt;stderr&gt;&#x27;, mode &#x27;w&#x27; at 0x7f18a6aaf1e0&gt;</div></td></tr><tr><td style="font-weight:bold;vertical-align:top;">wsgi_file_wrapper</td><td style="vertical-align:top;">:</td><td><div>&lt;class wsgiref.util.FileWrapper at 0x7f18a02b6390&gt;</div></td></tr><tr><td style="font-weight:bold;vertical-align:top;">wsgi_input</td><td style="vertical-align:top;">:</td><td><div>&lt;socket._fileobject object at 0x7f185f22f9d0&gt;</div></td></tr><tr><td style="font-weight:bold;vertical-align:top;">wsgi_multiprocess</td><td style="vertical-align:top;">:</td><td><div>False</div></td></tr><tr><td style="font-weight:bold;vertical-align:top;">wsgi_multithread</td><td style="vertical-align:top;">:</td><td><div>True</div></td></tr><tr><td style="font-weight:bold;vertical-align:top;">wsgi_run_once</td><td style="vertical-align:top;">:</td><td><div>False</div></td></tr><tr><td style="font-weight:bold;vertical-align:top;">wsgi_url_scheme</td><td style="vertical-align:top;">:</td><td><div>http</div></td></tr><tr><td style="font-weight:bold;vertical-align:top;">wsgi_version</td><td style="vertical-align:top;">:</td><td><div><table><tr><td><div>1</div></td></tr><tr><td><div>0</div></td></tr></table></div></td></tr></table></div></td></tr><tr><td style="font-weight:bold;vertical-align:top;">extension</td><td style="vertical-align:top;">:</td><td><div>html</div></td></tr><tr><td style="font-weight:bold;vertical-align:top;">folder</td><td style="vertical-align:top;">:</td><td><div>/media/miguel/WORK/Proyectos/Python/web2py/applications/seunova/</div></td></tr><tr><td style="font-weight:bold;vertical-align:top;">function</td><td style="vertical-align:top;">:</td><td><div>editar_aspecto</div></td></tr><tr><td style="font-weight:bold;vertical-align:top;">global_settings</td><td style="vertical-align:top;">:</td><td><div><table><tr><td style="font-weight:bold;vertical-align:top;">app_folders</td><td style="vertical-align:top;">:</td><td><div>set([&#x27;/media/miguel/WORK/Proyectos/Python/web2py/applications/seunova/&#x27;, &#x27;/media/miguel/WORK/Proyectos/Python/web2py/applications/admin/&#x27;, &#x27;/media/miguel/WORK/Proyectos/Python/web2py/applications/welcome/&#x27;])</div></td></tr><tr><td style="font-weight:bold;vertical-align:top;">applications_parent</td><td style="vertical-align:top;">:</td><td><div>/media/miguel/WORK/Proyectos/Python/web2py</div></td></tr><tr><td style="font-weight:bold;vertical-align:top;">cmd_args</td><td style="vertical-align:top;">:</td><td><div><table></table></div></td></tr><tr><td style="font-weight:bold;vertical-align:top;">cmd_options</td><td style="vertical-align:top;">:</td><td><div>&lt;Values at 0x7f18a024ddd0: {&#x27;verbose&#x27;: False, &#x27;ip&#x27;: &#x27;127.0.0.1&#x27;, &#x27;debuglevel&#x27;: 30, &#x27;with_scheduler&#x27;: False, &#x27;ips&#x27;: [&#x27;127.0.1.1&#x27;], &#x27;shutdown_timeout&#x27;: 5, &#x27;taskbar&#x27;: False, &#x27;with_coverage&#x27;: False, &#x27;scheduler_groups&#x27;: None, &#x27;port&#x27;: 8000, &#x27;maxthreads&#x27;: None, &#x27;softcron&#x27;: False, &#x27;server_name&#x27;: &#x27;miguel-asus-X555LAB&#x27;, &#x27;bpython&#x27;: False, &#x27;nogui&#x27;: False, &#x27;pid_filename&#x27;: &#x27;httpserver.pid&#x27;, &#x27;extcron&#x27;: False, &#x27;runcron&#x27;: False, &#x27;run_system_tests&#x27;: False, &#x27;test&#x27;: None, &#x27;folder&#x27;: &#x27;/media/miguel/WORK/Proyectos/Python/web2py&#x27;, &#x27;config&#x27;: &#x27;&#x27;, &#x27;minthreads&#x27;: None, &#x27;shell&#x27;: None, &#x27;run&#x27;: &#x27;&#x27;, &#x27;log_filename&#x27;: &#x27;httpserver.log&#x27;, &#x27;profiler_dir&#x27;: None, &#x27;args&#x27;: [&#x27;&#x27;], &#x27;socket_timeout&#x27;: 5, &#x27;ssl_ca_certificate&#x27;: None, &#x27;scheduler&#x27;: None, &#x27;interfaces&#x27;: None, &#x27;ssl_private_key&#x27;: &#x27;&#x27;, &#x27;gae&#x27;: None, &#x27;password&#x27;: &#x27;&lt;ask&gt;&#x27;, &#x27;request_queue_size&#x27;: 5, &#x27;ssl_certificate&#x27;: &#x27;&#x27;, &#x27;cronjob&#x27;: False, &#x27;numthreads&#x27;: None, &#x27;quiet&#x27;: False, &#x27;import_models&#x27;: False, &#x27;timeout&#x27;: 10, &#x27;plain&#x27;: False, &#x27;nobanner&#x27;: False}&gt;</div></td></tr><tr><td style="font-weight:bold;vertical-align:top;">db_sessions</td><td style="vertical-align:top;">:</td><td><div>set([])</div></td></tr><tr><td style="font-weight:bold;vertical-align:top;">debugging</td><td style="vertical-align:top;">:</td><td><div>False</div></td></tr><tr><td style="font-weight:bold;vertical-align:top;">gluon_parent</td><td style="vertical-align:top;">:</td><td><div>/media/miguel/WORK/Proyectos/Python/web2py</div></td></tr><tr><td style="font-weight:bold;vertical-align:top;">is_jython</td><td style="vertical-align:top;">:</td><td><div>False</div></td></tr><tr><td style="font-weight:bold;vertical-align:top;">is_pypy</td><td style="vertical-align:top;">:</td><td><div>False</div></td></tr><tr><td style="font-weight:bold;vertical-align:top;">is_source</td><td style="vertical-align:top;">:</td><td><div>True</div></td></tr><tr><td style="font-weight:bold;vertical-align:top;">local_hosts</td><td style="vertical-align:top;">:</td><td><div><table><tr><td><div>miguel-asus-X555LAB</div></td></tr><tr><td><div>::1</div></td></tr><tr><td><div>127.0.1.1</div></td></tr><tr><td><div>::ffff:127.0.0.1</div></td></tr><tr><td><div>127.0.0.1</div></td></tr></table></div></td></tr><tr><td style="font-weight:bold;vertical-align:top;">web2py_version</td><td style="vertical-align:top;">:</td><td><div>2.9.12-stable+timestamp.2015.01.17.06.11.03</div></td></tr></table></div></td></tr><tr><td style="font-weight:bold;vertical-align:top;">is_https</td><td style="vertical-align:top;">:</td><td><div>False</div></td></tr><tr><td style="font-weight:bold;vertical-align:top;">is_local</td><td style="vertical-align:top;">:</td><td><div>False</div></td></tr><tr><td style="font-weight:bold;vertical-align:top;">is_restful</td><td style="vertical-align:top;">:</td><td><div>False</div></td></tr><tr><td style="font-weight:bold;vertical-align:top;">is_sheduler</td><td style="vertical-align:top;">:</td><td><div>None</div></td></tr><tr><td style="font-weight:bold;vertical-align:top;">is_shell</td><td style="vertical-align:top;">:</td><td><div>None</div></td></tr><tr><td style="font-weight:bold;vertical-align:top;">now</td><td style="vertical-align:top;">:</td><td><div>datetime.datetime(2016, 5, 4, 9, 20, 55, 918558)</div></td></tr><tr><td style="font-weight:bold;vertical-align:top;">raw_args</td><td style="vertical-align:top;">:</td><td><div>1/1</div></td></tr><tr><td style="font-weight:bold;vertical-align:top;">raw_extension</td><td style="vertical-align:top;">:</td><td><div>None</div></td></tr><tr><td style="font-weight:bold;vertical-align:top;">url</td><td style="vertical-align:top;">:</td><td><div>/seunova/administrar/editar_aspecto/1/1</div></td></tr><tr><td style="font-weight:bold;vertical-align:top;">utcnow</td><td style="vertical-align:top;">:</td><td><div>datetime.datetime(2016, 5, 4, 13, 20, 55, 918574)</div></td></tr><tr><td style="font-weight:bold;vertical-align:top;">uuid</td><td style="vertical-align:top;">:</td><td><div>seunova/10.53.3.233.2016-05-04.09-20-55.8bda2d9f-c6b5-4715-8f29-7b82f1cfbe6a</div></td></tr><tr><td style="font-weight:bold;vertical-align:top;">wsgi</td><td style="vertical-align:top;">:</td><td><div>&lt;gluon.main.LazyWSGI object at 0x7f185eeace10&gt;</div></td></tr></table></div>'
tRp58
sS'frames'
p59
(lp60
(dp61
S'file'
p62
S'/media/miguel/WORK/Proyectos/Python/web2py/gluon/restricted.py'
p63
sS'dump'
p64
(dp65
S'environment'
p66
S"{'A': <class 'gluon.html.A'>, 'ANY_OF': <class 'gluon.validators.ANY_OF'>, 'ASSIGNJS': <function ASSIGNJS>, 'Auth': <class 'gluon.tools.Auth'>, 'B': <class 'gluon.html.B'>, 'BEAUTIFY': <class 'gluon.html.BEAUTIFY'>, 'BODY': <class 'gluon.html.BODY'>, 'BR': <class 'gluon.html.BR'>, 'BUTTON': <class 'gluon.html.BUTTON'>, 'CAT': <class 'gluon.html.CAT'>, ...}"
p67
sS'ccode'
p68
S'<code object <module> at 0x7f185ee58430, file "/...ions/seunova/controllers/administrar.py", line 4>'
p69
ssS'lnum'
p70
I224
sS'lines'
p71
(dp72
I224
S'        exec ccode in environment'
p73
sI225
S'    except HTTP:'
p74
sI226
S'        raise'
p75
sI227
S'    except RestrictedError:'
p76
sI228
S'        # do not encapsulate (obfuscate) the original RestrictedError'
p77
sI219
S'    try:'
p78
sI220
S'        if isinstance(code, types.CodeType):'
p79
sI221
S'            ccode = code'
p80
sI222
S'        else:'
p81
sI223
S'            ccode = compile2(code, layer)'
p82
ssS'call'
p83
S'(code="# coding=utf-8\\r\\n\\r\\n\\r\\n__author__ = \'Miguel Antonio...\\nresponse._vars=response._caller(editar_aspecto)\\n", environment={\'A\': <class \'gluon.html.A\'>, \'ANY_OF\': <class \'gluon.validators.ANY_OF\'>, \'ASSIGNJS\': <function ASSIGNJS>, \'Auth\': <class \'gluon.tools.Auth\'>, \'B\': <class \'gluon.html.B\'>, \'BEAUTIFY\': <class \'gluon.html.BEAUTIFY\'>, \'BODY\': <class \'gluon.html.BODY\'>, \'BR\': <class \'gluon.html.BR\'>, \'BUTTON\': <class \'gluon.html.BUTTON\'>, \'CAT\': <class \'gluon.html.CAT\'>, ...}, layer=\'/media/miguel/WORK/Proyectos/Python/web2py/applications/seunova/controllers/administrar.py\')'
p84
sS'func'
p85
S'restricted'
p86
sa(dp87
g62
S'/media/miguel/WORK/Proyectos/Python/web2py/applications/seunova/controllers/administrar.py'
p88
sg64
(dp89
sg70
I163
sg71
(dp90
I160
S'            db((db.aspectossolicitud.id == id_solicitud) and (db.aspectossolicitud.id_aspecto == aspecto)).delete()'
p91
sI161
S'    return dict(form1=form1)'
p92
sI152
S'        existe = db((db.aspectossolicitud.id_aspecto == form1.vars.id_aspecto) & ('
p93
sI153
S'            db.aspectossolicitud.id_solicitudes == id_solicitud)).count()'
p94
sI154
S"        response.flash = 'Aspecto cambiado'"
p95
sI155
S'        if existe > 1:'
p96
sI156
S"            response.flash = 'Error. Ya hab\xc3\xada agregado ese aspecto anteriormente'"
p97
sI157
S'            x = form1.vars.id'
p98
sI158
S'            db(db.aspectossolicitud.id == x).delete()'
p99
sI159
S'        else:'
p100
ssg83
S'()'
p101
sg85
S'<module>'
p102
sa(dp103
g62
S'/media/miguel/WORK/Proyectos/Python/web2py/gluon/globals.py'
p104
sg64
(dp105
S'self'
p106
S'undefined'
p107
sS'f'
S'<function editar_aspecto>'
p108
ssg70
I393
sg71
(dp109
I388
S"        self.flash = ''            # used by the default view layout"
p110
sI389
S'        self.meta = Storage()      # used by web2py_ajax.html'
p111
sI390
S'        self.menu = []             # used by the default view layout'
p112
sI391
S'        self.files = []            # used by web2py_ajax.html'
p113
sI392
S'        self._vars = None'
p114
sI393
S'        self._caller = lambda f: f()'
p115
sI394
S'        self._view_environment = None'
p116
sI395
S'        self._custom_commit = None'
p117
sI396
S'        self._custom_rollback = None'
p118
sI397
S"        self.generic_patterns = ['*']"
p119
ssg83
S'(f=<function editar_aspecto>)'
p120
sg85
S'<lambda>'
p121
sa(dp122
g62
S'/media/miguel/WORK/Proyectos/Python/web2py/applications/seunova/controllers/administrar.py'
p123
sg64
(dp124
S'db.aspectos'
p125
S'<Table aspectos (id,aspecto)>'
p126
sS'db.aspectos.id'
p127
S'<gluon.dal.objects.Field object>'
p128
sS'db.aspectos.id_categoria'
p129
g107
sS').select'
p130
g107
sS'aspecto'
p131
S"'1'"
p132
sS'global aspectos'
p133
S'<function aspectos>'
p134
sS'global db'
p135
S'<DAL uri="sqlite://storage.sqlite">'
p136
ssg70
I140
sg71
(dp137
I135
S'def editar_aspecto():'
p138
sI136
S'    db.aspectossolicitud.id_solicitudes.writable = 0'
p139
sI137
S'    id_solicitud = request.args(0)'
p140
sI138
S'    aspecto = request.args(1)'
p141
sI139
S'    print(id)'
p142
sI140
S'    aspectos = db(db.aspectos.id == aspecto).select(db.aspectos.id_categoria)'
p143
sI141
S'    for a in aspectos:'
p144
sI142
S'        x = a.id_categoria'
p145
sI143
S'    t = db.aspectossolicitud'
p146
sI144
S'    t.id_solicitudes.default = id_solicitud'
p147
ssg83
S'()'
p148
sg85
S'editar_aspecto'
p149
sa(dp150
g62
S'/media/miguel/WORK/Proyectos/Python/web2py/gluon/dal/objects.py'
p151
sg64
(dp152
S'builtinstr'
p153
S"<type 'str'>"
p154
sS'self'
p155
S'<Table aspectos (id,aspecto)>'
p156
sS'global ogetattr'
p157
S"<slot wrapper '__getattribute__' of 'object' objects>"
p158
sS'key'
p159
S"'id_categoria'"
p160
ssg70
I516
sg71
(dp161
I512
S'            return self._db(query).select(limitby=(0, 1), orderby_on_limitby=False).first()'
p162
sI513
S"        elif str(key).isdigit() or 'google' in DRIVERS and isinstance(key, Key):"
p163
sI514
S'            return self._db(self._id == key).select(limitby=(0, 1), orderby_on_limitby=False).first()'
p164
sI515
S'        elif key:'
p165
sI516
S'            return ogetattr(self, str(key))'
p166
sI517
S''
sI518
S'    def __call__(self, key=DEFAULT, **kwargs):'
p167
sI519
S"        for_update = kwargs.get('_for_update', False)"
p168
sI520
S"        if '_for_update' in kwargs:"
p169
sI511
S'            query = self._build_query(key)'
p170
ssg83
S"(self=<Table aspectos (id,aspecto)>, key='id_categoria')"
p171
sg85
g20
sasS'pyver'
p172
S'Python 2.7.11+: /usr/bin/python2.7 (prefix: /usr)'
p173
sS'session'
p174
g57
(S's\x84\t\x00\x00<div><table><tr><td style="font-weight:bold;vertical-align:top;">auth</td><td style="vertical-align:top;">:</td><td><div><table><tr><td style="font-weight:bold;vertical-align:top;">expiration</td><td style="vertical-align:top;">:</td><td><div>3000</div></td></tr><tr><td style="font-weight:bold;vertical-align:top;">hmac_key</td><td style="vertical-align:top;">:</td><td><div>c63e1487-d2b7-4ea5-a09c-0a9c8e377594</div></td></tr><tr><td style="font-weight:bold;vertical-align:top;">last_visit</td><td style="vertical-align:top;">:</td><td><div>datetime.datetime(2016, 5, 4, 9, 20, 15, 334875)</div></td></tr><tr><td style="font-weight:bold;vertical-align:top;">remember_me</td><td style="vertical-align:top;">:</td><td><div>False</div></td></tr><tr><td style="font-weight:bold;vertical-align:top;">user</td><td style="vertical-align:top;">:</td><td><div><table><tr><td style="font-weight:bold;vertical-align:top;">email</td><td style="vertical-align:top;">:</td><td><div>administrador@mi.dominio</div></td></tr><tr><td style="font-weight:bold;vertical-align:top;">first_name</td><td style="vertical-align:top;">:</td><td><div>Administrador</div></td></tr><tr><td style="font-weight:bold;vertical-align:top;">id</td><td style="vertical-align:top;">:</td><td><div>1L</div></td></tr><tr><td style="font-weight:bold;vertical-align:top;">last_name</td><td style="vertical-align:top;">:</td><td><div>SEUNOVA</div></td></tr><tr><td style="font-weight:bold;vertical-align:top;">registration_id</td><td style="vertical-align:top;">:</td><td><div></div></td></tr><tr><td style="font-weight:bold;vertical-align:top;">registration_key</td><td style="vertical-align:top;">:</td><td><div></div></td></tr><tr><td style="font-weight:bold;vertical-align:top;">reset_password_key</td><td style="vertical-align:top;">:</td><td><div></div></td></tr><tr><td style="font-weight:bold;vertical-align:top;">username</td><td style="vertical-align:top;">:</td><td><div>admin</div></td></tr></table></div></td></tr><tr><td style="font-weight:bold;vertical-align:top;">user_groups</td><td style="vertical-align:top;">:</td><td><div><table><tr><td style="font-weight:bold;vertical-align:top;">3</td><td style="vertical-align:top;">:</td><td><div>Administrador</div></td></tr></table></div></td></tr></table></div></td></tr><tr><td style="font-weight:bold;vertical-align:top;">flash</td><td style="vertical-align:top;">:</td><td><div>None</div></td></tr></table></div>'
tRp175
sS'etype'
p176
S"<type 'exceptions.AttributeError'>"
p177
sS'date'
p178
S'Wed May  4 09:20:56 2016'
p179
sS'response'
p180
g57
(S's\x1e$\x00\x00<div><table><tr><td style="font-weight:bold;vertical-align:top;">body</td><td style="vertical-align:top;">:</td><td><div>&lt;cStringIO.StringO object at 0x7f189e9fe378&gt;</div></td></tr><tr><td style="font-weight:bold;vertical-align:top;">cookies</td><td style="vertical-align:top;">:</td><td><div><table><tr><td style="font-weight:bold;vertical-align:top;">session_id_seunova</td><td style="vertical-align:top;">:</td><td><div>10.53.3.233-8e6f939f-4907-4f22-a038-91cb00f8ba93<table><tr><td style="font-weight:bold;vertical-align:top;">comment</td><td style="vertical-align:top;">:</td><td><div></div></td></tr><tr><td style="font-weight:bold;vertical-align:top;">domain</td><td style="vertical-align:top;">:</td><td><div></div></td></tr><tr><td style="font-weight:bold;vertical-align:top;">expires</td><td style="vertical-align:top;">:</td><td><div></div></td></tr><tr><td style="font-weight:bold;vertical-align:top;">httponly</td><td style="vertical-align:top;">:</td><td><div></div></td></tr><tr><td style="font-weight:bold;vertical-align:top;">max-age</td><td style="vertical-align:top;">:</td><td><div></div></td></tr><tr><td style="font-weight:bold;vertical-align:top;">path</td><td style="vertical-align:top;">:</td><td><div>/</div></td></tr><tr><td style="font-weight:bold;vertical-align:top;">secure</td><td style="vertical-align:top;">:</td><td><div></div></td></tr><tr><td style="font-weight:bold;vertical-align:top;">version</td><td style="vertical-align:top;">:</td><td><div></div></td></tr></table></div></td></tr></table></div></td></tr><tr><td style="font-weight:bold;vertical-align:top;">delimiters</td><td style="vertical-align:top;">:</td><td><div><table><tr><td><div>{{</div></td></tr><tr><td><div>}}</div></td></tr></table></div></td></tr><tr><td style="font-weight:bold;vertical-align:top;">files</td><td style="vertical-align:top;">:</td><td><div><table></table></div></td></tr><tr><td style="font-weight:bold;vertical-align:top;">flash</td><td style="vertical-align:top;">:</td><td><div></div></td></tr><tr><td style="font-weight:bold;vertical-align:top;">form_label_separator</td><td style="vertical-align:top;">:</td><td><div>: </div></td></tr><tr><td style="font-weight:bold;vertical-align:top;">formstyle</td><td style="vertical-align:top;">:</td><td><div>table3cols</div></td></tr><tr><td style="font-weight:bold;vertical-align:top;">generic_patterns</td><td style="vertical-align:top;">:</td><td><div><table></table></div></td></tr><tr><td style="font-weight:bold;vertical-align:top;">google_analytics_id</td><td style="vertical-align:top;">:</td><td><div>None</div></td></tr><tr><td style="font-weight:bold;vertical-align:top;">headers</td><td style="vertical-align:top;">:</td><td><div><table><tr><td style="font-weight:bold;vertical-align:top;">X-Powered-By</td><td style="vertical-align:top;">:</td><td><div>web2py</div></td></tr></table></div></td></tr><tr><td style="font-weight:bold;vertical-align:top;">logo</td><td style="vertical-align:top;">:</td><td><div><a class="brand" href="http://10.53.3.233:8000/seunova/default/index"><b>SEUNOVA</b></a></div></td></tr><tr><td style="font-weight:bold;vertical-align:top;">menu</td><td style="vertical-align:top;">:</td><td><div><table><tr><td><div><table><tr><td><div>Menu</div></td></tr><tr><td><div>False</div></td></tr><tr><td><div>/seunova/administrar/editar_aspecto</div></td></tr><tr><td><div><table><tr><td><div><table><tr><td><div>Home</div></td></tr><tr><td><div>False</div></td></tr><tr><td><div>/seunova/default/index</div></td></tr></table></div></td></tr><tr><td><div><table><tr><td><div>Create request</div></td></tr><tr><td><div>False</div></td></tr><tr><td><div>/seunova/solicitudes/nuevasolicitud</div></td></tr></table></div></td></tr><tr><td><div><table><tr><td><div>My requests</div></td></tr><tr><td><div>False</div></td></tr><tr><td><div>/seunova/solicitudes/missolicitudes</div></td></tr></table></div></td></tr><tr><td><div><table><tr><td><div>Show public requests</div></td></tr><tr><td><div>False</div></td></tr><tr><td><div>/seunova/solicitudes/solicitudespublicas</div></td></tr></table></div></td></tr><tr><td><div><table><tr><td><div>Help</div></td></tr><tr><td><div>False</div></td></tr><tr><td><div>/seunova/default/ayuda</div></td></tr></table></div></td></tr></table></div></td></tr></table></div></td></tr></table></div></td></tr><tr><td style="font-weight:bold;vertical-align:top;">menuespecial</td><td style="vertical-align:top;">:</td><td><div><table><tr><td><div><table><tr><td><div>Administration</div></td></tr><tr><td><div>False</div></td></tr><tr><td><div>None</div></td></tr><tr><td><div><table><tr><td><div><table><tr><td><div>Users</div></td></tr><tr><td><div>False</div></td></tr><tr><td><div>/seunova/administrar/usuarios</div></td></tr></table></div></td></tr><tr><td><div><table><tr><td><div>Requests</div></td></tr><tr><td><div>False</div></td></tr><tr><td><div>/seunova/administrar/solicitudes</div></td></tr></table></div></td></tr><tr><td><div><table><tr><td><div>Aspects</div></td></tr><tr><td><div>False</div></td></tr><tr><td><div>/seunova/administrar/aspectos</div></td></tr></table></div></td></tr></table></div></td></tr></table></div></td></tr></table></div></td></tr><tr><td style="font-weight:bold;vertical-align:top;">meta</td><td style="vertical-align:top;">:</td><td><div><table><tr><td style="font-weight:bold;vertical-align:top;">author</td><td style="vertical-align:top;">:</td><td><div>Miguel Antonio Conde</div></td></tr><tr><td style="font-weight:bold;vertical-align:top;">generator</td><td style="vertical-align:top;">:</td><td><div>Web2py Web Framework</div></td></tr><tr><td style="font-weight:bold;vertical-align:top;">keywords</td><td style="vertical-align:top;">:</td><td><div>web2py, python, framework, UCI, Delphi,CESOL,NOVA</div></td></tr></table></div></td></tr><tr><td style="font-weight:bold;vertical-align:top;">models_to_run</td><td style="vertical-align:top;">:</td><td><div><table><tr><td><div>^\\w+\\.py$</div></td></tr><tr><td><div>^administrar/\\w+\\.py$</div></td></tr><tr><td><div>^administrar/editar_aspecto/\\w+\\.py$</div></td></tr></table></div></td></tr><tr><td style="font-weight:bold;vertical-align:top;">postprocessing</td><td style="vertical-align:top;">:</td><td><div><table></table></div></td></tr><tr><td style="font-weight:bold;vertical-align:top;">session_client</td><td style="vertical-align:top;">:</td><td><div>10.53.3.233</div></td></tr><tr><td style="font-weight:bold;vertical-align:top;">session_cookie_compression_level</td><td style="vertical-align:top;">:</td><td><div>None</div></td></tr><tr><td style="font-weight:bold;vertical-align:top;">session_cookie_expires</td><td style="vertical-align:top;">:</td><td><div>None</div></td></tr><tr><td style="font-weight:bold;vertical-align:top;">session_cookie_key</td><td style="vertical-align:top;">:</td><td><div>None</div></td></tr><tr><td style="font-weight:bold;vertical-align:top;">session_data_name</td><td style="vertical-align:top;">:</td><td><div>session_data_seunova</div></td></tr><tr><td style="font-weight:bold;vertical-align:top;">session_file</td><td style="vertical-align:top;">:</td><td><div>&lt;open file &#x27;/media/miguel/WORK/Proyectos/Python/web2py/applications/seunova/sessions/0d9/198/10.53.3.233-8e6f939f-4907-4f22-a038-91cb00f8ba93&#x27;, mode &#x27;rb+&#x27; at 0x7f1884566390&gt;</div></td></tr><tr><td style="font-weight:bold;vertical-align:top;">session_filename</td><td style="vertical-align:top;">:</td><td><div>/media/miguel/WORK/Proyectos/Python/web2py/applications/seunova/sessions/10.53.3.233-8e6f939f-4907-4f22-a038-91cb00f8ba93</div></td></tr><tr><td style="font-weight:bold;vertical-align:top;">session_hash</td><td style="vertical-align:top;">:</td><td><div>73fcc9f6f0bff4fb0d1a5adc4e4e3c98</div></td></tr><tr><td style="font-weight:bold;vertical-align:top;">session_id</td><td style="vertical-align:top;">:</td><td><div>10.53.3.233-8e6f939f-4907-4f22-a038-91cb00f8ba93</div></td></tr><tr><td style="font-weight:bold;vertical-align:top;">session_id_name</td><td style="vertical-align:top;">:</td><td><div>session_id_seunova</div></td></tr><tr><td style="font-weight:bold;vertical-align:top;">session_locked</td><td style="vertical-align:top;">:</td><td><div>True</div></td></tr><tr><td style="font-weight:bold;vertical-align:top;">session_masterapp</td><td style="vertical-align:top;">:</td><td><div>seunova</div></td></tr><tr><td style="font-weight:bold;vertical-align:top;">session_new</td><td style="vertical-align:top;">:</td><td><div>False</div></td></tr><tr><td style="font-weight:bold;vertical-align:top;">session_storage_type</td><td style="vertical-align:top;">:</td><td><div>file</div></td></tr><tr><td style="font-weight:bold;vertical-align:top;">status</td><td style="vertical-align:top;">:</td><td><div>200</div></td></tr><tr><td style="font-weight:bold;vertical-align:top;">subtitle</td><td style="vertical-align:top;">:</td><td><div></div></td></tr><tr><td style="font-weight:bold;vertical-align:top;">title</td><td style="vertical-align:top;">:</td><td><div>Seunova</div></td></tr><tr><td style="font-weight:bold;vertical-align:top;">view</td><td style="vertical-align:top;">:</td><td><div>administrar/editar_aspecto.html</div></td></tr></table></div>'
tRp181
sS'locals'
p182
(dp183
S'self'
p184
S'<Table aspectos (id,aspecto)>'
p185
sS'key'
p186
S"'id_categoria'"
p187
sssS'traceback'
p188
S'Traceback (most recent call last):\n  File "/media/miguel/WORK/Proyectos/Python/web2py/gluon/restricted.py", line 224, in restricted\n    exec ccode in environment\n  File "/media/miguel/WORK/Proyectos/Python/web2py/applications/seunova/controllers/administrar.py", line 163, in <module>\n  File "/media/miguel/WORK/Proyectos/Python/web2py/gluon/globals.py", line 393, in <lambda>\n    self._caller = lambda f: f()\n  File "/media/miguel/WORK/Proyectos/Python/web2py/applications/seunova/controllers/administrar.py", line 140, in editar_aspecto\n    aspectos = db(db.aspectos.id == aspecto).select(db.aspectos.id_categoria)\n  File "/media/miguel/WORK/Proyectos/Python/web2py/gluon/dal/objects.py", line 516, in __getitem__\n    return ogetattr(self, str(key))\nAttributeError: \'Table\' object has no attribute \'id_categoria\'\n'
p189
s.