(dp1
S'output'
p2
S"<type 'exceptions.AttributeError'> 'Table' object has no attribute 'evaluacion2'"
p3
sS'layer'
p4
S'D:\\web2py\\applications\\seeda\\controllers/experto.py'
p5
sS'code'
p6
S'# coding=utf-8\n__author__ = \'Miguel Antonio\'\n\nfrom gluon.tools import Expose\n\nmostrarmenu2()\n\n\ndef index():\n    redirect(URL(c=\'default\', f=\'index\'))\n    return\n\n\n@auth.requires_membership(role="Experto")\ndef evaluar():\n   \n    db.evaluaciones.id_solicitudes.readable = False\n    db.evaluaciones.evaluacion2.readable = False\n    db.evaluaciones.delphi.readable = False\n    db.evaluaciones.evaluacion2.writable = False\n    db.evaluaciones.delphi.writable = False\n    consulta = (db.evaluaciones.evaluacion == "Sin evaluaci\xc3\xb3n") & (\n        db.evaluaciones.id_experto == db.expertosasociados.id) & (\n                   db.expertosasociados.id_usuario == auth.user_id)\n    form_evaluar = SQLFORM.grid(consulta, deletable=False, create=False, paginate=10, details=False,\n                                field_id=db.evaluaciones.id)\n    if request.args(0) == \'edit\':\n        formulario = form_evaluar.components[1]\n        if formulario.process().accepted:\n            aux2(request.args(2))\n            redirect(URL(c=\'experto\', f=\'evaluar\'))\n    return dict(form=form_evaluar)\n\n\n@auth.requires_membership(role="Experto")\ndef evaluar2():\n    db.expertosasociados.aceptado.readable = False\n    db.evaluaciones.evaluacion2.readable = False\n    db.evaluaciones.evaluacion2.writable = True\n    db.evaluaciones.evaluacion.writable = 0\n    db.evaluaciones.delphi.writable = 0\n    consulta = (db.evaluaciones.evaluacion2 == "Sin evaluaci\xc3\xb3n") & (\n        db.evaluaciones.id_experto == db.expertosasociados.id) & (\n                   db.expertosasociados.id_usuario == auth.user_id) & (db.expertosasociados.aceptado == \'Si\') & (\n                   db.evaluaciones.ronda == 2)\n    form_evaluar2 = SQLFORM.grid(consulta, create=False, user_signature=0, field_id=db.evaluaciones.id,\n                                 deletable=False, paginate=10\n    )\n    if request.args(0) == \'edit\':\n        formulario = form_evaluar2.components[1]\n        if formulario.process().accepted:\n            aux2(request.args(2))\n            redirect(URL(c=\'experto\', f=\'evaluar2\'))\n    return dict(form=form_evaluar2)\n\n\n@auth.requires_membership(role="Experto")\ndef ronda1():\n    id_solicitud = request.args(0)\n    id_aspecto = request.args(1)\n    consulta = (db.evaluaciones.id_solicitudes == id_solicitud) & (\n        db.evaluaciones.id_aspectossolicitud == id_aspecto) & (db.evaluaciones.evaluacion != "")\n    form_ronda1 = SQLFORM.grid(consulta, user_signature=0, deletable=False, editable=False, paginate=10, create=False)\n    return dict(form=form_ronda1)\n\n\n@auth.requires_membership(role="Experto")\ndef mis_evaluaciones():\n    db.evaluaciones.id_solicitudes.readable = False\n    db.evaluaciones.ronda.readable = True\n    consulta = (db.evaluaciones.evaluacion != \'Null\') & (db.evaluaciones.id_experto == db.expertosasociados.id) & (\n        db.expertosasociados.id_usuario == auth.user_id)\n    form1 = SQLFORM.grid(consulta, deletable=False, create=False, details=False, paginate=10, editable=False)\n    return dict(form1=form1)\n\n\ndef aux2(id_evaluacion):\n    consulta = db(db.evaluaciones.id == id_evaluacion).select(db.evaluaciones.id_solicitudes,\n                                                              db.evaluaciones.ronda).first()\n    id_solicitud = consulta[\'id_solicitudes\']\n    ronda = consulta[\'ronda\']\n    contar = db((db.evaluaciones.id_solicitudes == id_solicitud) & (db.evaluaciones.evaluacion == "Sin evaluaci\xc3\xb3n") & (\n        db.evaluaciones.ronda == 1)).count()\n    if ((contar == 0) & (ronda == "1")):\n        delphi(id_solicitud)\n        c = (db.solicitudes.id == id_solicitud)\n        miset = db(c)\n        miset.update(estado="En ronda 2")\n        c2 = db(db.evaluaciones.id_solicitudes == id_solicitud).update(ronda=2)\n    else:\n        contar = db((db.evaluaciones.id_solicitudes == id_solicitud) & (\n            db.evaluaciones.ronda == 2) & (db.evaluaciones.evaluacion2 == "Sin evaluaci\xc3\xb3n")).count()\n        if contar == 0:\n            delphi(id_solicitud)\n            c = (db.solicitudes.id == id_solicitud)\n            miset = db(c)\n            miset.update(estado="Evaluada")\n\n\n\n\ndef delphi(id_solicitud):\n\n    #Consulta para obtener los datos sobre los que se va a trabajar\n    evaluaciones = db(db.evaluaciones.id_solicitudes == id_solicitud) \\\n        .select(db.evaluaciones.id_solicitudes, db.evaluaciones.id_aspectossolicitud, db.evaluaciones.evaluacion,\n                db.evaluaciones.delphi, orderby=db.evaluaciones.id_aspectossolicitud)\n    cant_aspectos = db(db.evaluaciones.id_solicitudes == id_solicitud).select(\n        db.evaluaciones.id_aspectossolicitud, groupby=db.evaluaciones.id_aspectossolicitud)\n    print(evaluaciones,cant_aspectos)\n    #Conteo de la cantidad de aspectos a evaluar y cantidad de evaluaciones emitidas\n    contar_aspectos = 0\n    for cant_aspecto in cant_aspectos:\n        contar_aspectos += 1\n    contar_evaluaciones = 0\n    for evaluacion in evaluaciones:\n        contar_evaluaciones += 1\n        #Declaraciones de listas y variables auxiliares\n    conteo_de_evaluaciones = [0] * 5\n    x = 0\n    y = 0\n    c = 0\n    mf = [0] * contar_aspectos\n    lista_d_evaluaciones = [0] * contar_evaluaciones\n\n    #(-_-)#PASO 1 DEL METODO DELPHI#(-_-)#\n    #Creaci\xc3\xb3n de la matriz de frecuencia#\n    for evaluacion in evaluaciones:\n        lista_d_evaluaciones[y] = evaluacion.evaluacion\n        y += 1\n    while x < contar_evaluaciones:\n        y = 0\n        while y < contar_evaluaciones / contar_aspectos:\n            if lista_d_evaluaciones[x] == "Muy Mal":\n                var0 = conteo_de_evaluaciones[0]\n                conteo_de_evaluaciones[0] = var0 + 1\n            elif lista_d_evaluaciones[x] == "Mal":\n                var1 = conteo_de_evaluaciones[1]\n                conteo_de_evaluaciones[1] = var1 + 1\n            elif lista_d_evaluaciones[x] == "Regular":\n                var2 = conteo_de_evaluaciones[2]\n                conteo_de_evaluaciones[2] = var2 + 1\n            elif lista_d_evaluaciones[x] == "Bien":\n                var3 = conteo_de_evaluaciones[3]\n                conteo_de_evaluaciones[3] = var3 + 1\n            else:\n                var4 = conteo_de_evaluaciones[4]\n                conteo_de_evaluaciones[4] = var4 + 1\n            y += 1\n            x += 1\n        mf[c] = conteo_de_evaluaciones\n        conteo_de_evaluaciones = [0] * 5\n        c += 1\n    print(\'MF\',mf)\n    #(-_-)#PASO 2 DEL METODO DELPHI#(-_-)#\n    #Creaci\xc3\xb3n de la matriz de frecuencias acumuladas#\n    mfa = []\n    lista_aux = []\n    x = 0\n    while x < contar_aspectos:\n        y = 0\n        lista_aux.append(mf[x][0])\n        while y < 4:\n            var1 = lista_aux[y]\n            var2 = mf[x][y + 1]\n            lista_aux.append(var1 + var2)\n            y += 1\n        x += 1\n        mfa.append(lista_aux)\n        lista_aux = []\n    print(\'MFA\')\n    print(mfa)\n    #(-_-)#PASO 3 DEL METODO DELPHI#(-_-)#\n    #Creaci\xc3\xb3n de la matriz de frecuencias acumuladas relativas#\n    mfar = [0] * contar_aspectos\n    x = 0\n    while x < contar_aspectos:\n        y = 0\n        while y < 5:\n            lista_aux.append(mfa[x][y] * 1.00 / (contar_evaluaciones / contar_aspectos))\n            y += 1\n        mfar[x] = lista_aux\n        lista_aux = []\n        x += 1\n    print(\'MFAR\')\n    print(mfar)\n    #(-_-)#PASO 4 DEL METODO DELPHI#(-_-)#\n    #Obtenci\xc3\xb3n del inverso de la distribuci\xc3\xb3n normal est\xc3\xa1ndar acumulativa#\n    mfinal = [0] * contar_aspectos\n    x = 0\n    while x < contar_aspectos:\n        y = 0\n        while y < 5:\n            z = mfar[x][y] * 100\n            w = z.__int__()\n            z = w / 100.0\n            datos = db(db.valores.valor == z).select(db.valores.idnea)\n            for dato in datos:\n                lista_aux.append(dato.idnea)\n            y += 1\n        mfinal[x] = lista_aux\n        lista_aux = []\n        x += 1\n    print(\'MFINAL\')\n    print(mfinal)\n    #(-_-)#PASO 5 DEL METODO DELPHI#(-_-)#\n    #C\xc3\xa1lculo del resultado final#\n\n    #Sumatoria del valor de los aspectos#\n    sumatoriah = [0] * contar_aspectos\n    x = 0\n    while x < contar_aspectos:\n        y = 0\n        z = 0\n        while y < 4:\n            z = z + mfinal[x][y]\n            y += 1\n        sumatoriah[x] = z\n        x += 1\n\n    #Sumatoria del valor de los criterios#\n    sumatoriav = [0] * 4\n    x = 0\n    while x < 4:\n        y = 0\n        z = 0\n        while y < contar_aspectos:\n            z = z + mfinal[y][x]\n            y += 1\n        sumatoriav[x] = z\n        x += 1\n\n    #Promedio del valor de los aspectos#\n    promedio = [0] * contar_aspectos\n    x = 0\n    while x < contar_aspectos:\n        z = sumatoriah[x] / 5.0\n        promedio[x] = z\n        x += 1\n\n    #C\xc3\xa1lculo del valor d N#\n    n = 0\n    x = 0\n    z = 0\n    while x < contar_aspectos:\n        z = z + sumatoriah[x]\n        x += 1\n    n = z / (5.0 * contar_aspectos)\n\n    #Promedio - N#\n    x = 0\n    while x < promedio.__len__():\n        y = promedio[x]\n        promedio[x] = y - n\n        x += 1\n    print(\'Promedios\')\n    print(promedio)\n\n    #C\xc3\xa1lculo de los l\xc3\xadmites#\n    limites = [0] * 4\n    x = 0\n    while x < 4:\n        limites[x] = sumatoriav[x] / contar_aspectos\n        x += 1\n    print(\'L\xc3\xadmites\')\n    print(limites)\n\n    #Clasificaci\xc3\xb3n de los elementos\n    x = 0\n    id_aspectos_solicitud = []\n    for aspect in cant_aspectos:\n        id_aspectos_solicitud.append(aspect.id_aspectossolicitud)\n    while x < contar_aspectos:\n        elemento = promedio[x]\n        if elemento >= limites[3]:\n            actualiza(4, id_solicitud, id_aspectos_solicitud[x])\n        elif elemento >= limites[2]:\n            actualiza(3, id_solicitud, id_aspectos_solicitud[x])\n        elif elemento >= limites[1]:\n            actualiza(2, id_solicitud, id_aspectos_solicitud[x])\n        elif elemento >= limites[0]:\n            actualiza(1, id_solicitud, id_aspectos_solicitud[x])\n        else:\n            actualiza(0, id_solicitud, id_aspectos_solicitud[x])\n        x += 1\n    return\n\n\ndef actualiza(clasificacion, id_solicitud, aspecto):\n    if clasificacion == 0:\n        db((db.aspectossolicitud.id_solicitudes == id_solicitud) & (\n            db.aspectossolicitud.id == aspecto)).update(evaluacionfinal=\'Muy Bien\')\n        db((db.evaluaciones.id_solicitudes == id_solicitud) & (\n            db.evaluaciones.id_aspectossolicitud == aspecto)).update(delphi=\'Muy Bien\')\n    elif clasificacion == 1:\n        db((db.aspectossolicitud.id_solicitudes == id_solicitud) & (\n            db.aspectossolicitud.id == aspecto)).update(evaluacionfinal=\'Bien\')\n        db((db.evaluaciones.id_solicitudes == id_solicitud) & (\n                db.evaluaciones.id_aspectossolicitud == aspecto)).update(delphi=\'Bien\')\n    elif clasificacion == 2:\n        db((db.aspectossolicitud.id_solicitudes == id_solicitud) & (\n            db.aspectossolicitud.id == aspecto)).update(evaluacionfinal=\'Regular\')\n        db((db.evaluaciones.id_solicitudes == id_solicitud) & (\n                db.evaluaciones.id_aspectossolicitud == aspecto)).update(delphi=\'Regular\')\n    elif clasificacion == 3:\n        db((db.aspectossolicitud.id_solicitudes == id_solicitud) & (\n            db.aspectossolicitud.id == aspecto)).update(evaluacionfinal=\'Mal\')\n        db((db.evaluaciones.id_solicitudes == id_solicitud) & (\n                db.evaluaciones.id_aspectossolicitud == aspecto)).update(delphi=\'Mal\')\n    elif clasificacion == 4:\n        db((db.aspectossolicitud.id_solicitudes == id_solicitud) & (\n            db.aspectossolicitud.id == aspecto)).update(evaluacionfinal=\'Muy Mal\')\n        db((db.evaluaciones.id_solicitudes == id_solicitud) & (\n                db.evaluaciones.id_aspectossolicitud == aspecto)).update(delphi=\'Muy Mal\')\n    return\n\nresponse._vars=response._caller(evaluar)\n'
p7
sS'snapshot'
p8
(dp9
S'exception'
p10
(dp11
S'__hash__'
p12
S"<method-wrapper '__hash__' of exceptions.AttributeError object>"
p13
sS'__setattr__'
p14
S"<method-wrapper '__setattr__' of exceptions.AttributeError object>"
p15
sS'__reduce_ex__'
p16
S'<built-in method __reduce_ex__ of exceptions.AttributeError object>'
p17
sS'__getslice__'
p18
S"<method-wrapper '__getslice__' of exceptions.AttributeError object>"
p19
sS'__getitem__'
p20
S"<method-wrapper '__getitem__' of exceptions.AttributeError object>"
p21
sS'__setstate__'
p22
S'<built-in method __setstate__ of exceptions.AttributeError object>'
p23
sS'__reduce__'
p24
S'<built-in method __reduce__ of exceptions.AttributeError object>'
p25
sS'__str__'
p26
S"<method-wrapper '__str__' of exceptions.AttributeError object>"
p27
sS'__format__'
p28
S'<built-in method __format__ of exceptions.AttributeError object>'
p29
sS'__getattribute__'
p30
S"<method-wrapper '__getattribute__' of exceptions.AttributeError object>"
p31
sS'__class__'
p32
S"<type 'exceptions.AttributeError'>"
p33
sS'__unicode__'
p34
S'<built-in method __unicode__ of exceptions.AttributeError object>'
p35
sS'__delattr__'
p36
S"<method-wrapper '__delattr__' of exceptions.AttributeError object>"
p37
sS'__subclasshook__'
p38
S'<built-in method __subclasshook__ of type object>'
p39
sS'__repr__'
p40
S"<method-wrapper '__repr__' of exceptions.AttributeError object>"
p41
sS'args'
p42
S'("\'Table\' object has no attribute \'evaluacion2\'",)'
p43
sS'__dict__'
p44
S'{}'
p45
sS'__sizeof__'
p46
S'<built-in method __sizeof__ of exceptions.AttributeError object>'
p47
sS'__doc__'
p48
S"'Attribute not found.'"
p49
sS'__init__'
p50
S"<method-wrapper '__init__' of exceptions.AttributeError object>"
p51
sS'__new__'
p52
S'<built-in method __new__ of type object>'
p53
ssS'evalue'
p54
S"'Table' object has no attribute 'evaluacion2'"
p55
sS'request'
p56
cgluon.html
XML_unpickle
p57
(S's3^\x00\x00<div><table><tr><td style="font-weight:bold;vertical-align:top;">ajax</td><td style="vertical-align:top;">:</td><td><div>False</div></td></tr><tr><td style="font-weight:bold;vertical-align:top;">application</td><td style="vertical-align:top;">:</td><td><div>seeda</div></td></tr><tr><td style="font-weight:bold;vertical-align:top;">args</td><td style="vertical-align:top;">:</td><td><div><table></table></div></td></tr><tr><td style="font-weight:bold;vertical-align:top;">cid</td><td style="vertical-align:top;">:</td><td><div>None</div></td></tr><tr><td style="font-weight:bold;vertical-align:top;">client</td><td style="vertical-align:top;">:</td><td><div>127.0.0.1</div></td></tr><tr><td style="font-weight:bold;vertical-align:top;">controller</td><td style="vertical-align:top;">:</td><td><div>experto</div></td></tr><tr><td style="font-weight:bold;vertical-align:top;">cookies</td><td style="vertical-align:top;">:</td><td><div><table><tr><td style="font-weight:bold;vertical-align:top;">session_id_admin</td><td style="vertical-align:top;">:</td><td><div>127.0.0.1-1ee1fb9d-8d8a-4377-bea0-b1e02f237d91<table><tr><td style="font-weight:bold;vertical-align:top;">comment</td><td style="vertical-align:top;">:</td><td><div></div></td></tr><tr><td style="font-weight:bold;vertical-align:top;">domain</td><td style="vertical-align:top;">:</td><td><div></div></td></tr><tr><td style="font-weight:bold;vertical-align:top;">expires</td><td style="vertical-align:top;">:</td><td><div></div></td></tr><tr><td style="font-weight:bold;vertical-align:top;">httponly</td><td style="vertical-align:top;">:</td><td><div></div></td></tr><tr><td style="font-weight:bold;vertical-align:top;">max-age</td><td style="vertical-align:top;">:</td><td><div></div></td></tr><tr><td style="font-weight:bold;vertical-align:top;">path</td><td style="vertical-align:top;">:</td><td><div></div></td></tr><tr><td style="font-weight:bold;vertical-align:top;">secure</td><td style="vertical-align:top;">:</td><td><div></div></td></tr><tr><td style="font-weight:bold;vertical-align:top;">version</td><td style="vertical-align:top;">:</td><td><div></div></td></tr></table></div></td></tr><tr><td style="font-weight:bold;vertical-align:top;">session_id_seeda</td><td style="vertical-align:top;">:</td><td><div>127.0.0.1-09597b02-9085-42f0-bf2d-1cd5d472dc14<table><tr><td style="font-weight:bold;vertical-align:top;">comment</td><td style="vertical-align:top;">:</td><td><div></div></td></tr><tr><td style="font-weight:bold;vertical-align:top;">domain</td><td style="vertical-align:top;">:</td><td><div></div></td></tr><tr><td style="font-weight:bold;vertical-align:top;">expires</td><td style="vertical-align:top;">:</td><td><div></div></td></tr><tr><td style="font-weight:bold;vertical-align:top;">httponly</td><td style="vertical-align:top;">:</td><td><div></div></td></tr><tr><td style="font-weight:bold;vertical-align:top;">max-age</td><td style="vertical-align:top;">:</td><td><div></div></td></tr><tr><td style="font-weight:bold;vertical-align:top;">path</td><td style="vertical-align:top;">:</td><td><div></div></td></tr><tr><td style="font-weight:bold;vertical-align:top;">secure</td><td style="vertical-align:top;">:</td><td><div></div></td></tr><tr><td style="font-weight:bold;vertical-align:top;">version</td><td style="vertical-align:top;">:</td><td><div></div></td></tr></table></div></td></tr><tr><td style="font-weight:bold;vertical-align:top;">session_id_welcome</td><td style="vertical-align:top;">:</td><td><div>127.0.0.1-ce3b1122-86b8-443c-a49d-6fb83be09bb8<table><tr><td style="font-weight:bold;vertical-align:top;">comment</td><td style="vertical-align:top;">:</td><td><div></div></td></tr><tr><td style="font-weight:bold;vertical-align:top;">domain</td><td style="vertical-align:top;">:</td><td><div></div></td></tr><tr><td style="font-weight:bold;vertical-align:top;">expires</td><td style="vertical-align:top;">:</td><td><div></div></td></tr><tr><td style="font-weight:bold;vertical-align:top;">httponly</td><td style="vertical-align:top;">:</td><td><div></div></td></tr><tr><td style="font-weight:bold;vertical-align:top;">max-age</td><td style="vertical-align:top;">:</td><td><div></div></td></tr><tr><td style="font-weight:bold;vertical-align:top;">path</td><td style="vertical-align:top;">:</td><td><div></div></td></tr><tr><td style="font-weight:bold;vertical-align:top;">secure</td><td style="vertical-align:top;">:</td><td><div></div></td></tr><tr><td style="font-weight:bold;vertical-align:top;">version</td><td style="vertical-align:top;">:</td><td><div></div></td></tr></table></div></td></tr></table></div></td></tr><tr><td style="font-weight:bold;vertical-align:top;">env</td><td style="vertical-align:top;">:</td><td><div><table><tr><td style="font-weight:bold;vertical-align:top;">HTTP_ACCEPT</td><td style="vertical-align:top;">:</td><td><div>text/html,application/xhtml+xml,application/xml;q=0.9,image/webp,*/*;q=0.8</div></td></tr><tr><td style="font-weight:bold;vertical-align:top;">HTTP_ACCEPT_ENCODING</td><td style="vertical-align:top;">:</td><td><div>gzip, deflate</div></td></tr><tr><td style="font-weight:bold;vertical-align:top;">HTTP_ACCEPT_LANGUAGE</td><td style="vertical-align:top;">:</td><td><div>es-ES,es;q=0.8</div></td></tr><tr><td style="font-weight:bold;vertical-align:top;">HTTP_CACHE_CONTROL</td><td style="vertical-align:top;">:</td><td><div>max-age=0</div></td></tr><tr><td style="font-weight:bold;vertical-align:top;">HTTP_CONNECTION</td><td style="vertical-align:top;">:</td><td><div>keep-alive</div></td></tr><tr><td style="font-weight:bold;vertical-align:top;">HTTP_COOKIE</td><td style="vertical-align:top;">:</td><td><div>session_id_welcome=127.0.0.1-ce3b1122-86b8-443c-a49d-6fb83be09bb8; session_id_seeda=127.0.0.1-09597b02-9085-42f0-bf2d-1cd5d472dc14; session_id_admin=127.0.0.1-1ee1fb9d-8d8a-4377-bea0-b1e02f237d91</div></td></tr><tr><td style="font-weight:bold;vertical-align:top;">HTTP_HOST</td><td style="vertical-align:top;">:</td><td><div>127.0.0.1:8000</div></td></tr><tr><td style="font-weight:bold;vertical-align:top;">HTTP_REFERER</td><td style="vertical-align:top;">:</td><td><div>http://127.0.0.1:8000/seeda/default/index</div></td></tr><tr><td style="font-weight:bold;vertical-align:top;">HTTP_UPGRADE_INSECURE_REQUESTS</td><td style="vertical-align:top;">:</td><td><div>1</div></td></tr><tr><td style="font-weight:bold;vertical-align:top;">HTTP_USER_AGENT</td><td style="vertical-align:top;">:</td><td><div>Mozilla/5.0 (Windows NT 10.0; WOW64) AppleWebKit/537.36 (KHTML, like Gecko) Chrome/49.0.2623.110 Safari/537.36</div></td></tr><tr><td style="font-weight:bold;vertical-align:top;">PATH_INFO</td><td style="vertical-align:top;">:</td><td><div>/seeda/experto/evaluar</div></td></tr><tr><td style="font-weight:bold;vertical-align:top;">QUERY_STRING</td><td style="vertical-align:top;">:</td><td><div></div></td></tr><tr><td style="font-weight:bold;vertical-align:top;">REMOTE_ADDR</td><td style="vertical-align:top;">:</td><td><div>127.0.0.1</div></td></tr><tr><td style="font-weight:bold;vertical-align:top;">REMOTE_PORT</td><td style="vertical-align:top;">:</td><td><div>58766</div></td></tr><tr><td style="font-weight:bold;vertical-align:top;">REQUEST_METHOD</td><td style="vertical-align:top;">:</td><td><div>GET</div></td></tr><tr><td style="font-weight:bold;vertical-align:top;">SCRIPT_NAME</td><td style="vertical-align:top;">:</td><td><div></div></td></tr><tr><td style="font-weight:bold;vertical-align:top;">SERVER_NAME</td><td style="vertical-align:top;">:</td><td><div>DESKTOP-RRU69RV</div></td></tr><tr><td style="font-weight:bold;vertical-align:top;">SERVER_PORT</td><td style="vertical-align:top;">:</td><td><div>8000</div></td></tr><tr><td style="font-weight:bold;vertical-align:top;">SERVER_PROTOCOL</td><td style="vertical-align:top;">:</td><td><div>HTTP/1.1</div></td></tr><tr><td style="font-weight:bold;vertical-align:top;">SERVER_SOFTWARE</td><td style="vertical-align:top;">:</td><td><div>Rocket 1.2.6</div></td></tr><tr><td style="font-weight:bold;vertical-align:top;">app_folders</td><td style="vertical-align:top;">:</td><td><div>set([&#x27;D:\\\\web2py\\\\applications\\\\seeda\\\\&#x27;, &#x27;D:\\\\web2py\\\\applications\\\\admin\\\\&#x27;, &#x27;D:\\\\web2py\\\\applications\\\\welcome\\\\&#x27;])</div></td></tr><tr><td style="font-weight:bold;vertical-align:top;">applications_parent</td><td style="vertical-align:top;">:</td><td><div>D:\\web2py</div></td></tr><tr><td style="font-weight:bold;vertical-align:top;">cmd_args</td><td style="vertical-align:top;">:</td><td><div><table></table></div></td></tr><tr><td style="font-weight:bold;vertical-align:top;">cmd_options</td><td style="vertical-align:top;">:</td><td><div>&lt;Values at 0x3843580: {&#x27;verbose&#x27;: False, &#x27;ip&#x27;: &#x27;127.0.0.1&#x27;, &#x27;debuglevel&#x27;: 30, &#x27;with_scheduler&#x27;: False, &#x27;ips&#x27;: [], &#x27;shutdown_timeout&#x27;: 5, &#x27;taskbar&#x27;: False, &#x27;with_coverage&#x27;: False, &#x27;scheduler_groups&#x27;: None, &#x27;port&#x27;: 8000, &#x27;maxthreads&#x27;: None, &#x27;softcron&#x27;: False, &#x27;server_name&#x27;: &#x27;DESKTOP-RRU69RV&#x27;, &#x27;bpython&#x27;: False, &#x27;nogui&#x27;: False, &#x27;pid_filename&#x27;: &#x27;httpserver.pid&#x27;, &#x27;extcron&#x27;: False, &#x27;runcron&#x27;: False, &#x27;run_system_tests&#x27;: False, &#x27;test&#x27;: None, &#x27;folder&#x27;: &#x27;D:\\\\web2py&#x27;, &#x27;config&#x27;: &#x27;&#x27;, &#x27;minthreads&#x27;: None, &#x27;shell&#x27;: None, &#x27;run&#x27;: &#x27;&#x27;, &#x27;log_filename&#x27;: &#x27;httpserver.log&#x27;, &#x27;profiler_dir&#x27;: None, &#x27;args&#x27;: [&#x27;&#x27;], &#x27;socket_timeout&#x27;: 5, &#x27;ssl_ca_certificate&#x27;: None, &#x27;scheduler&#x27;: None, &#x27;interfaces&#x27;: None, &#x27;ssl_private_key&#x27;: &#x27;&#x27;, &#x27;gae&#x27;: None, &#x27;password&#x27;: &#x27;&lt;ask&gt;&#x27;, &#x27;request_queue_size&#x27;: 5, &#x27;ssl_certificate&#x27;: &#x27;&#x27;, &#x27;cronjob&#x27;: False, &#x27;numthreads&#x27;: None, &#x27;quiet&#x27;: False, &#x27;import_models&#x27;: False, &#x27;timeout&#x27;: 10, &#x27;plain&#x27;: False, &#x27;nobanner&#x27;: False}&gt;</div></td></tr><tr><td style="font-weight:bold;vertical-align:top;">db_sessions</td><td style="vertical-align:top;">:</td><td><div>set([])</div></td></tr><tr><td style="font-weight:bold;vertical-align:top;">debugging</td><td style="vertical-align:top;">:</td><td><div>False</div></td></tr><tr><td style="font-weight:bold;vertical-align:top;">gluon_parent</td><td style="vertical-align:top;">:</td><td><div>D:\\web2py</div></td></tr><tr><td style="font-weight:bold;vertical-align:top;">http_accept</td><td style="vertical-align:top;">:</td><td><div>text/html,application/xhtml+xml,application/xml;q=0.9,image/webp,*/*;q=0.8</div></td></tr><tr><td style="font-weight:bold;vertical-align:top;">http_accept_encoding</td><td style="vertical-align:top;">:</td><td><div>gzip, deflate</div></td></tr><tr><td style="font-weight:bold;vertical-align:top;">http_accept_language</td><td style="vertical-align:top;">:</td><td><div>es-ES,es;q=0.8</div></td></tr><tr><td style="font-weight:bold;vertical-align:top;">http_cache_control</td><td style="vertical-align:top;">:</td><td><div>max-age=0</div></td></tr><tr><td style="font-weight:bold;vertical-align:top;">http_connection</td><td style="vertical-align:top;">:</td><td><div>keep-alive</div></td></tr><tr><td style="font-weight:bold;vertical-align:top;">http_cookie</td><td style="vertical-align:top;">:</td><td><div>session_id_welcome=127.0.0.1-ce3b1122-86b8-443c-a49d-6fb83be09bb8; session_id_seeda=127.0.0.1-09597b02-9085-42f0-bf2d-1cd5d472dc14; session_id_admin=127.0.0.1-1ee1fb9d-8d8a-4377-bea0-b1e02f237d91</div></td></tr><tr><td style="font-weight:bold;vertical-align:top;">http_host</td><td style="vertical-align:top;">:</td><td><div>127.0.0.1:8000</div></td></tr><tr><td style="font-weight:bold;vertical-align:top;">http_referer</td><td style="vertical-align:top;">:</td><td><div>http://127.0.0.1:8000/seeda/default/index</div></td></tr><tr><td style="font-weight:bold;vertical-align:top;">http_upgrade_insecure_requests</td><td style="vertical-align:top;">:</td><td><div>1</div></td></tr><tr><td style="font-weight:bold;vertical-align:top;">http_user_agent</td><td style="vertical-align:top;">:</td><td><div>Mozilla/5.0 (Windows NT 10.0; WOW64) AppleWebKit/537.36 (KHTML, like Gecko) Chrome/49.0.2623.110 Safari/537.36</div></td></tr><tr><td style="font-weight:bold;vertical-align:top;">is_jython</td><td style="vertical-align:top;">:</td><td><div>False</div></td></tr><tr><td style="font-weight:bold;vertical-align:top;">is_pypy</td><td style="vertical-align:top;">:</td><td><div>False</div></td></tr><tr><td style="font-weight:bold;vertical-align:top;">is_source</td><td style="vertical-align:top;">:</td><td><div>True</div></td></tr><tr><td style="font-weight:bold;vertical-align:top;">local_hosts</td><td style="vertical-align:top;">:</td><td><div><table><tr><td><div>fe80::11f1:c1de:1399:65a2%4</div></td></tr><tr><td><div>fe80::7942:f2e6:65bd:45f1%14</div></td></tr><tr><td><div>DESKTOP-RRU69RV</div></td></tr><tr><td><div>::ffff:127.0.0.1</div></td></tr><tr><td><div>::1</div></td></tr><tr><td><div>10.53.3.8</div></td></tr><tr><td><div>DESKTOP-RRU69RV.uci.cu</div></td></tr><tr><td><div>127.0.0.1</div></td></tr><tr><td><div>192.168.189.1</div></td></tr></table></div></td></tr><tr><td style="font-weight:bold;vertical-align:top;">path_info</td><td style="vertical-align:top;">:</td><td><div>/seeda/experto/evaluar</div></td></tr><tr><td style="font-weight:bold;vertical-align:top;">query_string</td><td style="vertical-align:top;">:</td><td><div></div></td></tr><tr><td style="font-weight:bold;vertical-align:top;">remote_addr</td><td style="vertical-align:top;">:</td><td><div>127.0.0.1</div></td></tr><tr><td style="font-weight:bold;vertical-align:top;">remote_port</td><td style="vertical-align:top;">:</td><td><div>58766</div></td></tr><tr><td style="font-weight:bold;vertical-align:top;">request_method</td><td style="vertical-align:top;">:</td><td><div>GET</div></td></tr><tr><td style="font-weight:bold;vertical-align:top;">request_uri</td><td style="vertical-align:top;">:</td><td><div>/seeda/experto/evaluar</div></td></tr><tr><td style="font-weight:bold;vertical-align:top;">script_name</td><td style="vertical-align:top;">:</td><td><div></div></td></tr><tr><td style="font-weight:bold;vertical-align:top;">server_name</td><td style="vertical-align:top;">:</td><td><div>DESKTOP-RRU69RV</div></td></tr><tr><td style="font-weight:bold;vertical-align:top;">server_port</td><td style="vertical-align:top;">:</td><td><div>8000</div></td></tr><tr><td style="font-weight:bold;vertical-align:top;">server_protocol</td><td style="vertical-align:top;">:</td><td><div>HTTP/1.1</div></td></tr><tr><td style="font-weight:bold;vertical-align:top;">server_software</td><td style="vertical-align:top;">:</td><td><div>Rocket 1.2.6</div></td></tr><tr><td style="font-weight:bold;vertical-align:top;">web2py_path</td><td style="vertical-align:top;">:</td><td><div>D:\\web2py</div></td></tr><tr><td style="font-weight:bold;vertical-align:top;">web2py_version</td><td style="vertical-align:top;">:</td><td><div>2.9.12-stable+timestamp.2015.01.17.06.11.03</div></td></tr><tr><td style="font-weight:bold;vertical-align:top;">wsgi.errors</td><td style="vertical-align:top;">:</td><td><div>&lt;open file &#x27;&lt;stderr&gt;&#x27;, mode &#x27;w&#x27; at 0x010650D0&gt;</div></td></tr><tr><td style="font-weight:bold;vertical-align:top;">wsgi.file_wrapper</td><td style="vertical-align:top;">:</td><td><div>&lt;class wsgiref.util.FileWrapper at 0x03B02A78&gt;</div></td></tr><tr><td style="font-weight:bold;vertical-align:top;">wsgi.input</td><td style="vertical-align:top;">:</td><td><div>&lt;socket._fileobject object at 0x0965E2B0&gt;</div></td></tr><tr><td style="font-weight:bold;vertical-align:top;">wsgi.multiprocess</td><td style="vertical-align:top;">:</td><td><div>False</div></td></tr><tr><td style="font-weight:bold;vertical-align:top;">wsgi.multithread</td><td style="vertical-align:top;">:</td><td><div>True</div></td></tr><tr><td style="font-weight:bold;vertical-align:top;">wsgi.run_once</td><td style="vertical-align:top;">:</td><td><div>False</div></td></tr><tr><td style="font-weight:bold;vertical-align:top;">wsgi.url_scheme</td><td style="vertical-align:top;">:</td><td><div>http</div></td></tr><tr><td style="font-weight:bold;vertical-align:top;">wsgi.version</td><td style="vertical-align:top;">:</td><td><div><table><tr><td><div>1</div></td></tr><tr><td><div>0</div></td></tr></table></div></td></tr><tr><td style="font-weight:bold;vertical-align:top;">wsgi_errors</td><td style="vertical-align:top;">:</td><td><div>&lt;open file &#x27;&lt;stderr&gt;&#x27;, mode &#x27;w&#x27; at 0x010650D0&gt;</div></td></tr><tr><td style="font-weight:bold;vertical-align:top;">wsgi_file_wrapper</td><td style="vertical-align:top;">:</td><td><div>&lt;class wsgiref.util.FileWrapper at 0x03B02A78&gt;</div></td></tr><tr><td style="font-weight:bold;vertical-align:top;">wsgi_input</td><td style="vertical-align:top;">:</td><td><div>&lt;socket._fileobject object at 0x0965E2B0&gt;</div></td></tr><tr><td style="font-weight:bold;vertical-align:top;">wsgi_multiprocess</td><td style="vertical-align:top;">:</td><td><div>False</div></td></tr><tr><td style="font-weight:bold;vertical-align:top;">wsgi_multithread</td><td style="vertical-align:top;">:</td><td><div>True</div></td></tr><tr><td style="font-weight:bold;vertical-align:top;">wsgi_run_once</td><td style="vertical-align:top;">:</td><td><div>False</div></td></tr><tr><td style="font-weight:bold;vertical-align:top;">wsgi_url_scheme</td><td style="vertical-align:top;">:</td><td><div>http</div></td></tr><tr><td style="font-weight:bold;vertical-align:top;">wsgi_version</td><td style="vertical-align:top;">:</td><td><div><table><tr><td><div>1</div></td></tr><tr><td><div>0</div></td></tr></table></div></td></tr></table></div></td></tr><tr><td style="font-weight:bold;vertical-align:top;">extension</td><td style="vertical-align:top;">:</td><td><div>html</div></td></tr><tr><td style="font-weight:bold;vertical-align:top;">folder</td><td style="vertical-align:top;">:</td><td><div>D:\\web2py\\applications\\seeda\\</div></td></tr><tr><td style="font-weight:bold;vertical-align:top;">function</td><td style="vertical-align:top;">:</td><td><div>evaluar</div></td></tr><tr><td style="font-weight:bold;vertical-align:top;">global_settings</td><td style="vertical-align:top;">:</td><td><div><table><tr><td style="font-weight:bold;vertical-align:top;">app_folders</td><td style="vertical-align:top;">:</td><td><div>set([&#x27;D:\\\\web2py\\\\applications\\\\seeda\\\\&#x27;, &#x27;D:\\\\web2py\\\\applications\\\\admin\\\\&#x27;, &#x27;D:\\\\web2py\\\\applications\\\\welcome\\\\&#x27;])</div></td></tr><tr><td style="font-weight:bold;vertical-align:top;">applications_parent</td><td style="vertical-align:top;">:</td><td><div>D:\\web2py</div></td></tr><tr><td style="font-weight:bold;vertical-align:top;">cmd_args</td><td style="vertical-align:top;">:</td><td><div><table></table></div></td></tr><tr><td style="font-weight:bold;vertical-align:top;">cmd_options</td><td style="vertical-align:top;">:</td><td><div>&lt;Values at 0x3843580: {&#x27;verbose&#x27;: False, &#x27;ip&#x27;: &#x27;127.0.0.1&#x27;, &#x27;debuglevel&#x27;: 30, &#x27;with_scheduler&#x27;: False, &#x27;ips&#x27;: [], &#x27;shutdown_timeout&#x27;: 5, &#x27;taskbar&#x27;: False, &#x27;with_coverage&#x27;: False, &#x27;scheduler_groups&#x27;: None, &#x27;port&#x27;: 8000, &#x27;maxthreads&#x27;: None, &#x27;softcron&#x27;: False, &#x27;server_name&#x27;: &#x27;DESKTOP-RRU69RV&#x27;, &#x27;bpython&#x27;: False, &#x27;nogui&#x27;: False, &#x27;pid_filename&#x27;: &#x27;httpserver.pid&#x27;, &#x27;extcron&#x27;: False, &#x27;runcron&#x27;: False, &#x27;run_system_tests&#x27;: False, &#x27;test&#x27;: None, &#x27;folder&#x27;: &#x27;D:\\\\web2py&#x27;, &#x27;config&#x27;: &#x27;&#x27;, &#x27;minthreads&#x27;: None, &#x27;shell&#x27;: None, &#x27;run&#x27;: &#x27;&#x27;, &#x27;log_filename&#x27;: &#x27;httpserver.log&#x27;, &#x27;profiler_dir&#x27;: None, &#x27;args&#x27;: [&#x27;&#x27;], &#x27;socket_timeout&#x27;: 5, &#x27;ssl_ca_certificate&#x27;: None, &#x27;scheduler&#x27;: None, &#x27;interfaces&#x27;: None, &#x27;ssl_private_key&#x27;: &#x27;&#x27;, &#x27;gae&#x27;: None, &#x27;password&#x27;: &#x27;&lt;ask&gt;&#x27;, &#x27;request_queue_size&#x27;: 5, &#x27;ssl_certificate&#x27;: &#x27;&#x27;, &#x27;cronjob&#x27;: False, &#x27;numthreads&#x27;: None, &#x27;quiet&#x27;: False, &#x27;import_models&#x27;: False, &#x27;timeout&#x27;: 10, &#x27;plain&#x27;: False, &#x27;nobanner&#x27;: False}&gt;</div></td></tr><tr><td style="font-weight:bold;vertical-align:top;">db_sessions</td><td style="vertical-align:top;">:</td><td><div>set([])</div></td></tr><tr><td style="font-weight:bold;vertical-align:top;">debugging</td><td style="vertical-align:top;">:</td><td><div>False</div></td></tr><tr><td style="font-weight:bold;vertical-align:top;">gluon_parent</td><td style="vertical-align:top;">:</td><td><div>D:\\web2py</div></td></tr><tr><td style="font-weight:bold;vertical-align:top;">is_jython</td><td style="vertical-align:top;">:</td><td><div>False</div></td></tr><tr><td style="font-weight:bold;vertical-align:top;">is_pypy</td><td style="vertical-align:top;">:</td><td><div>False</div></td></tr><tr><td style="font-weight:bold;vertical-align:top;">is_source</td><td style="vertical-align:top;">:</td><td><div>True</div></td></tr><tr><td style="font-weight:bold;vertical-align:top;">local_hosts</td><td style="vertical-align:top;">:</td><td><div><table><tr><td><div>fe80::11f1:c1de:1399:65a2%4</div></td></tr><tr><td><div>fe80::7942:f2e6:65bd:45f1%14</div></td></tr><tr><td><div>DESKTOP-RRU69RV</div></td></tr><tr><td><div>::ffff:127.0.0.1</div></td></tr><tr><td><div>::1</div></td></tr><tr><td><div>10.53.3.8</div></td></tr><tr><td><div>DESKTOP-RRU69RV.uci.cu</div></td></tr><tr><td><div>127.0.0.1</div></td></tr><tr><td><div>192.168.189.1</div></td></tr></table></div></td></tr><tr><td style="font-weight:bold;vertical-align:top;">web2py_version</td><td style="vertical-align:top;">:</td><td><div>2.9.12-stable+timestamp.2015.01.17.06.11.03</div></td></tr></table></div></td></tr><tr><td style="font-weight:bold;vertical-align:top;">is_https</td><td style="vertical-align:top;">:</td><td><div>False</div></td></tr><tr><td style="font-weight:bold;vertical-align:top;">is_local</td><td style="vertical-align:top;">:</td><td><div>True</div></td></tr><tr><td style="font-weight:bold;vertical-align:top;">is_restful</td><td style="vertical-align:top;">:</td><td><div>False</div></td></tr><tr><td style="font-weight:bold;vertical-align:top;">is_sheduler</td><td style="vertical-align:top;">:</td><td><div>None</div></td></tr><tr><td style="font-weight:bold;vertical-align:top;">is_shell</td><td style="vertical-align:top;">:</td><td><div>None</div></td></tr><tr><td style="font-weight:bold;vertical-align:top;">now</td><td style="vertical-align:top;">:</td><td><div>datetime.datetime(2016, 5, 6, 14, 1, 37, 525000)</div></td></tr><tr><td style="font-weight:bold;vertical-align:top;">raw_args</td><td style="vertical-align:top;">:</td><td><div></div></td></tr><tr><td style="font-weight:bold;vertical-align:top;">raw_extension</td><td style="vertical-align:top;">:</td><td><div>None</div></td></tr><tr><td style="font-weight:bold;vertical-align:top;">url</td><td style="vertical-align:top;">:</td><td><div>/seeda/experto/evaluar</div></td></tr><tr><td style="font-weight:bold;vertical-align:top;">utcnow</td><td style="vertical-align:top;">:</td><td><div>datetime.datetime(2016, 5, 6, 16, 1, 37, 525000)</div></td></tr><tr><td style="font-weight:bold;vertical-align:top;">uuid</td><td style="vertical-align:top;">:</td><td><div>seeda/127.0.0.1.2016-05-06.14-01-37.84155a06-6a26-4ab2-9ab0-71c091d69704</div></td></tr><tr><td style="font-weight:bold;vertical-align:top;">wsgi</td><td style="vertical-align:top;">:</td><td><div>&lt;gluon.main.LazyWSGI object at 0x09C4D9B0&gt;</div></td></tr></table></div>'
tRp58
sS'frames'
p59
(lp60
(dp61
S'file'
p62
S'D:\\web2py\\gluon\\restricted.py'
p63
sS'dump'
p64
(dp65
S'environment'
p66
S"{'A': <class 'gluon.html.A'>, 'ANY_OF': <class 'gluon.validators.ANY_OF'>, 'ASSIGNJS': <function ASSIGNJS>, 'Auth': <class 'gluon.tools.Auth'>, 'B': <class 'gluon.html.B'>, 'BEAUTIFY': <class 'gluon.html.BEAUTIFY'>, 'BODY': <class 'gluon.html.BODY'>, 'BR': <class 'gluon.html.BR'>, 'BUTTON': <class 'gluon.html.BUTTON'>, 'CAT': <class 'gluon.html.CAT'>, ...}"
p67
sS'ccode'
p68
S'<code object <module> at 0982C020, file "D:\\web2...plications\\seeda\\controllers/experto.py", line 2>'
p69
ssS'lnum'
p70
I224
sS'lines'
p71
(dp72
I224
S'        exec ccode in environment'
p73
sI225
S'    except HTTP:'
p74
sI226
S'        raise'
p75
sI227
S'    except RestrictedError:'
p76
sI228
S'        # do not encapsulate (obfuscate) the original RestrictedError'
p77
sI219
S'    try:'
p78
sI220
S'        if isinstance(code, types.CodeType):'
p79
sI221
S'            ccode = code'
p80
sI222
S'        else:'
p81
sI223
S'            ccode = compile2(code, layer)'
p82
ssS'call'
p83
S'(code="# coding=utf-8\\n__author__ = \'Miguel Antonio\'\\n\\nfr...return\\n\\nresponse._vars=response._caller(evaluar)\\n", environment={\'A\': <class \'gluon.html.A\'>, \'ANY_OF\': <class \'gluon.validators.ANY_OF\'>, \'ASSIGNJS\': <function ASSIGNJS>, \'Auth\': <class \'gluon.tools.Auth\'>, \'B\': <class \'gluon.html.B\'>, \'BEAUTIFY\': <class \'gluon.html.BEAUTIFY\'>, \'BODY\': <class \'gluon.html.BODY\'>, \'BR\': <class \'gluon.html.BR\'>, \'BUTTON\': <class \'gluon.html.BUTTON\'>, \'CAT\': <class \'gluon.html.CAT\'>, ...}, layer=r\'D:\\web2py\\applications\\seeda\\controllers/experto.py\')'
p84
sS'func'
p85
S'restricted'
p86
sa(dp87
g62
S'D:\\web2py\\applications\\seeda\\controllers\\experto.py'
p88
sg64
(dp89
S'db.aspectossolicitud'
p90
S'<Table aspectossolicitud (id,id_solicitudes,id_aspecto,evaluacionfinal)>'
p91
sS'db.aspectossolicitud.id'
p92
S'<gluon.dal.objects.Field object>'
p93
sS'db'
p94
S'<DAL uri="sqlite://storage.sqlite">'
p95
sS'id_solicitud'
p96
S'undefined'
p97
sS'aspecto'
p98
g97
sS'db.aspectossolicitud.id_solicitudes'
p99
S'<gluon.dal.objects.Field object>'
p100
sS'evaluacionfinal'
p101
g97
ssg70
I317
sg71
(dp102
I306
S'        db((db.aspectossolicitud.id_solicitudes == id_solicitud) & ('
p103
sI307
S"            db.aspectossolicitud.id == aspecto)).update(evaluacionfinal='Mal')"
p104
sI308
S'        db((db.evaluaciones.id_solicitudes == id_solicitud) & ('
p105
sI309
S"                db.evaluaciones.id_aspectossolicitud == aspecto)).update(delphi='Mal')"
p106
sI310
S'    elif clasificacion == 4:'
p107
sI311
S'        db((db.aspectossolicitud.id_solicitudes == id_solicitud) & ('
p108
sI312
S"            db.aspectossolicitud.id == aspecto)).update(evaluacionfinal='Muy Mal')"
p109
sI313
S'        db((db.evaluaciones.id_solicitudes == id_solicitud) & ('
p110
sI314
S"                db.evaluaciones.id_aspectossolicitud == aspecto)).update(delphi='Muy Mal')"
p111
sI315
S'    return'
p112
ssg83
S'()'
p113
sg85
S'<module>'
p114
sa(dp115
g62
S'D:\\web2py\\gluon\\globals.py'
p116
sg64
(dp117
S'self'
p118
g97
sS'f'
S'<function evaluar>'
p119
ssg70
I393
sg71
(dp120
I388
S"        self.flash = ''            # used by the default view layout"
p121
sI389
S'        self.meta = Storage()      # used by web2py_ajax.html'
p122
sI390
S'        self.menu = []             # used by the default view layout'
p123
sI391
S'        self.files = []            # used by web2py_ajax.html'
p124
sI392
S'        self._vars = None'
p125
sI393
S'        self._caller = lambda f: f()'
p126
sI394
S'        self._view_environment = None'
p127
sI395
S'        self._custom_commit = None'
p128
sI396
S'        self._custom_rollback = None'
p129
sI397
S"        self.generic_patterns = ['*']"
p130
ssg83
S'(f=<function evaluar>)'
p131
sg85
S'<lambda>'
p132
sa(dp133
g62
S'D:\\web2py\\gluon\\tools.py'
p134
sg64
(dp135
S'action'
p136
S'<function evaluar>'
p137
sS'a'
S'()'
p138
sS'b'
g45
ssg70
I3444
sg71
(dp139
I3439
S'                    flag = condition'
p140
sI3440
S'                if not flag:'
p141
sI3441
S'                    current.session.flash = self.messages.access_denied'
p142
sI3442
S'                    return call_or_redirect('
p143
sI3443
S'                        self.settings.on_failed_authorization)'
p144
sI3444
S'                return action(*a, **b)'
p145
sI3445
S'            f.__doc__ = action.__doc__'
p146
sI3446
S'            f.__name__ = action.__name__'
p147
sI3447
S'            f.__dict__.update(action.__dict__)'
p148
sI3448
S'            return f'
p149
ssg83
S'(*a=(), **b={})'
p150
sg85
S'f'
sa(dp151
g62
S'D:\\web2py\\applications\\seeda\\controllers\\experto.py'
p152
sg64
(dp153
S'global db'
p154
S'<DAL uri="sqlite://storage.sqlite">'
p155
sS'db.evaluaciones'
p156
S'<Table evaluaciones (id,id_solicitudes,id_aspectossolicitud,id_experto,evaluacion,delphi)>'
p157
sS'db.evaluaciones.evaluacion2'
p158
g97
sS'builtinFalse'
p159
S'False'
p160
ssg70
I18
sg71
(dp161
I13
S''
sI14
S'@auth.requires_membership(role="Experto")'
p162
sI15
S'def evaluar():'
p163
sI16
S''
sI17
S'    db.evaluaciones.id_solicitudes.readable = False'
p164
sI18
S'    db.evaluaciones.evaluacion2.readable = False'
p165
sI19
S'    db.evaluaciones.delphi.readable = False'
p166
sI20
S'    db.evaluaciones.evaluacion2.writable = False'
p167
sI21
S'    db.evaluaciones.delphi.writable = False'
p168
sI22
S'    consulta = (db.evaluaciones.evaluacion == "Sin evaluaci\xc3\xb3n") & ('
p169
ssg83
S'()'
p170
sg85
S'evaluar'
p171
sa(dp172
g62
S'D:\\web2py\\gluon\\dal\\objects.py'
p173
sg64
(dp174
S'builtinstr'
p175
S"<type 'str'>"
p176
sS'self'
p177
S'<Table evaluaciones (id,id_solicitudes,id_aspectossolicitud,id_experto,evaluacion,delphi)>'
p178
sS'global ogetattr'
p179
S"<slot wrapper '__getattribute__' of 'object' objects>"
p180
sS'key'
p181
S"'evaluacion2'"
p182
ssg70
I516
sg71
(dp183
I512
S'            return self._db(query).select(limitby=(0, 1), orderby_on_limitby=False).first()'
p184
sI513
S"        elif str(key).isdigit() or 'google' in DRIVERS and isinstance(key, Key):"
p185
sI514
S'            return self._db(self._id == key).select(limitby=(0, 1), orderby_on_limitby=False).first()'
p186
sI515
S'        elif key:'
p187
sI516
S'            return ogetattr(self, str(key))'
p188
sI517
S''
sI518
S'    def __call__(self, key=DEFAULT, **kwargs):'
p189
sI519
S"        for_update = kwargs.get('_for_update', False)"
p190
sI520
S"        if '_for_update' in kwargs:"
p191
sI511
S'            query = self._build_query(key)'
p192
ssg83
S"(self=<Table evaluaciones (id,id_solicitudes,id_aspectossolicitud,id_experto,evaluacion,delphi)>, key='evaluacion2')"
p193
sg85
g20
sasS'pyver'
p194
S'Python 2.7.2: D:\\Python2.7\\python.exe (prefix: D:\\Python2.7)'
p195
sS'session'
p196
g57
(S'sq\t\x00\x00<div><table><tr><td style="font-weight:bold;vertical-align:top;">auth</td><td style="vertical-align:top;">:</td><td><div><table><tr><td style="font-weight:bold;vertical-align:top;">expiration</td><td style="vertical-align:top;">:</td><td><div>3000</div></td></tr><tr><td style="font-weight:bold;vertical-align:top;">hmac_key</td><td style="vertical-align:top;">:</td><td><div>ca873fec-d110-4d49-8160-76cedae6a36b</div></td></tr><tr><td style="font-weight:bold;vertical-align:top;">last_visit</td><td style="vertical-align:top;">:</td><td><div>datetime.datetime(2016, 5, 6, 13, 59, 49, 274000)</div></td></tr><tr><td style="font-weight:bold;vertical-align:top;">remember_me</td><td style="vertical-align:top;">:</td><td><div>False</div></td></tr><tr><td style="font-weight:bold;vertical-align:top;">user</td><td style="vertical-align:top;">:</td><td><div><table><tr><td style="font-weight:bold;vertical-align:top;">email</td><td style="vertical-align:top;">:</td><td><div>experto1@mi.dominio</div></td></tr><tr><td style="font-weight:bold;vertical-align:top;">first_name</td><td style="vertical-align:top;">:</td><td><div>experto</div></td></tr><tr><td style="font-weight:bold;vertical-align:top;">id</td><td style="vertical-align:top;">:</td><td><div>3L</div></td></tr><tr><td style="font-weight:bold;vertical-align:top;">last_name</td><td style="vertical-align:top;">:</td><td><div>1</div></td></tr><tr><td style="font-weight:bold;vertical-align:top;">registration_id</td><td style="vertical-align:top;">:</td><td><div></div></td></tr><tr><td style="font-weight:bold;vertical-align:top;">registration_key</td><td style="vertical-align:top;">:</td><td><div></div></td></tr><tr><td style="font-weight:bold;vertical-align:top;">reset_password_key</td><td style="vertical-align:top;">:</td><td><div></div></td></tr><tr><td style="font-weight:bold;vertical-align:top;">username</td><td style="vertical-align:top;">:</td><td><div>experto1</div></td></tr></table></div></td></tr><tr><td style="font-weight:bold;vertical-align:top;">user_groups</td><td style="vertical-align:top;">:</td><td><div><table><tr><td style="font-weight:bold;vertical-align:top;">2</td><td style="vertical-align:top;">:</td><td><div>Experto</div></td></tr></table></div></td></tr></table></div></td></tr><tr><td style="font-weight:bold;vertical-align:top;">flash</td><td style="vertical-align:top;">:</td><td><div>None</div></td></tr></table></div>'
tRp197
sS'etype'
p198
S"<type 'exceptions.AttributeError'>"
p199
sS'date'
p200
S'Fri May 06 14:01:37 2016'
p201
sS'response'
p202
g57
(S's\xc6(\x00\x00<div><table><tr><td style="font-weight:bold;vertical-align:top;">body</td><td style="vertical-align:top;">:</td><td><div>&lt;cStringIO.StringO object at 0x09A08EE0&gt;</div></td></tr><tr><td style="font-weight:bold;vertical-align:top;">cookies</td><td style="vertical-align:top;">:</td><td><div><table><tr><td style="font-weight:bold;vertical-align:top;">session_id_seeda</td><td style="vertical-align:top;">:</td><td><div>127.0.0.1-09597b02-9085-42f0-bf2d-1cd5d472dc14<table><tr><td style="font-weight:bold;vertical-align:top;">comment</td><td style="vertical-align:top;">:</td><td><div></div></td></tr><tr><td style="font-weight:bold;vertical-align:top;">domain</td><td style="vertical-align:top;">:</td><td><div></div></td></tr><tr><td style="font-weight:bold;vertical-align:top;">expires</td><td style="vertical-align:top;">:</td><td><div></div></td></tr><tr><td style="font-weight:bold;vertical-align:top;">httponly</td><td style="vertical-align:top;">:</td><td><div></div></td></tr><tr><td style="font-weight:bold;vertical-align:top;">max-age</td><td style="vertical-align:top;">:</td><td><div></div></td></tr><tr><td style="font-weight:bold;vertical-align:top;">path</td><td style="vertical-align:top;">:</td><td><div>/</div></td></tr><tr><td style="font-weight:bold;vertical-align:top;">secure</td><td style="vertical-align:top;">:</td><td><div></div></td></tr><tr><td style="font-weight:bold;vertical-align:top;">version</td><td style="vertical-align:top;">:</td><td><div></div></td></tr></table></div></td></tr></table></div></td></tr><tr><td style="font-weight:bold;vertical-align:top;">delimiters</td><td style="vertical-align:top;">:</td><td><div><table><tr><td><div>{{</div></td></tr><tr><td><div>}}</div></td></tr></table></div></td></tr><tr><td style="font-weight:bold;vertical-align:top;">files</td><td style="vertical-align:top;">:</td><td><div><table></table></div></td></tr><tr><td style="font-weight:bold;vertical-align:top;">flash</td><td style="vertical-align:top;">:</td><td><div></div></td></tr><tr><td style="font-weight:bold;vertical-align:top;">form_label_separator</td><td style="vertical-align:top;">:</td><td><div>: </div></td></tr><tr><td style="font-weight:bold;vertical-align:top;">formstyle</td><td style="vertical-align:top;">:</td><td><div>table3cols</div></td></tr><tr><td style="font-weight:bold;vertical-align:top;">generic_patterns</td><td style="vertical-align:top;">:</td><td><div><table><tr><td><div>*</div></td></tr></table></div></td></tr><tr><td style="font-weight:bold;vertical-align:top;">google_analytics_id</td><td style="vertical-align:top;">:</td><td><div>None</div></td></tr><tr><td style="font-weight:bold;vertical-align:top;">headers</td><td style="vertical-align:top;">:</td><td><div><table><tr><td style="font-weight:bold;vertical-align:top;">X-Powered-By</td><td style="vertical-align:top;">:</td><td><div>web2py</div></td></tr></table></div></td></tr><tr><td style="font-weight:bold;vertical-align:top;">logo</td><td style="vertical-align:top;">:</td><td><div><a class="brand" href="http://10.53.3.56:8000/seeda/default/index"><b>SEEDA</b></a></div></td></tr><tr><td style="font-weight:bold;vertical-align:top;">menu</td><td style="vertical-align:top;">:</td><td><div><table><tr><td><div><table><tr><td><div>Men\xc3\xba</div></td></tr><tr><td><div>False</div></td></tr><tr><td><div>/seeda/experto/evaluar</div></td></tr><tr><td><div><table><tr><td><div><table><tr><td><div>Inicio</div></td></tr><tr><td><div>False</div></td></tr><tr><td><div>/seeda/default/index</div></td></tr></table></div></td></tr><tr><td><div><table><tr><td><div>Subir estrategia</div></td></tr><tr><td><div>False</div></td></tr><tr><td><div>/seeda/solicitudes/nuevasolicitud</div></td></tr></table></div></td></tr><tr><td><div><table><tr><td><div>Mis estrategias</div></td></tr><tr><td><div>False</div></td></tr><tr><td><div>/seeda/solicitudes/missolicitudes</div></td></tr></table></div></td></tr><tr><td><div><table><tr><td><div>Estrategias publicadas</div></td></tr><tr><td><div>False</div></td></tr><tr><td><div>/seeda/solicitudes/solicitudespublicas</div></td></tr></table></div></td></tr><tr><td><div><table><tr><td><div>Ayuda</div></td></tr><tr><td><div>False</div></td></tr><tr><td><div>/seeda/default/ayuda</div></td></tr></table></div></td></tr></table></div></td></tr></table></div></td></tr><tr><td><div><table><tr><td><div>Tablas</div></td></tr><tr><td><div>False</div></td></tr><tr><td><div>/seeda/experto/evaluar</div></td></tr><tr><td><div><table><tr><td><div><table><tr><td><div>Principales productos</div></td></tr><tr><td><div>False</div></td></tr><tr><td><div>/seeda/default/tabla1</div></td></tr></table></div></td></tr><tr><td><div><table><tr><td><div>Fertilizantes importados</div></td></tr><tr><td><div>False</div></td></tr><tr><td><div>/seeda/default/tabla2</div></td></tr></table></div></td></tr><tr><td><div><table><tr><td><div>Fertilizantes exportados</div></td></tr><tr><td><div>False</div></td></tr><tr><td><div>/seeda/default/tabla3</div></td></tr></table></div></td></tr><tr><td><div><table><tr><td><div>Insecticidas importados</div></td></tr><tr><td><div>False</div></td></tr><tr><td><div>/seeda/default/tabla4</div></td></tr></table></div></td></tr><tr><td><div><table><tr><td><div>Insecticidas exportados</div></td></tr><tr><td><div>False</div></td></tr><tr><td><div>/seeda/default/tabla5</div></td></tr></table></div></td></tr><tr><td><div><table><tr><td><div>Maquinarias importadas</div></td></tr><tr><td><div>False</div></td></tr><tr><td><div>/seeda/default/tabla6</div></td></tr></table></div></td></tr><tr><td><div><table><tr><td><div>Maquinarias exportadas</div></td></tr><tr><td><div>False</div></td></tr><tr><td><div>/seeda/default/tabla7</div></td></tr></table></div></td></tr></table></div></td></tr></table></div></td></tr></table></div></td></tr><tr><td style="font-weight:bold;vertical-align:top;">menuespecial</td><td style="vertical-align:top;">:</td><td><div><table><tr><td><div><table><tr><td><div>Expertos</div></td></tr><tr><td><div>False</div></td></tr><tr><td><div>None</div></td></tr><tr><td><div><table><tr><td><div><table><tr><td><div>Evaluar peticiones</div></td></tr><tr><td><div>False</div></td></tr><tr><td><div>/seeda/experto/evaluar</div></td></tr></table></div></td></tr><tr><td><div><table><tr><td><div>Mis evaluaciones</div></td></tr><tr><td><div>False</div></td></tr><tr><td><div>/seeda/experto/mis_evaluaciones</div></td></tr></table></div></td></tr></table></div></td></tr></table></div></td></tr></table></div></td></tr><tr><td style="font-weight:bold;vertical-align:top;">meta</td><td style="vertical-align:top;">:</td><td><div><table><tr><td style="font-weight:bold;vertical-align:top;">author</td><td style="vertical-align:top;">:</td><td><div>Miguel Antonio Conde</div></td></tr><tr><td style="font-weight:bold;vertical-align:top;">generator</td><td style="vertical-align:top;">:</td><td><div>Web2py Web Framework</div></td></tr><tr><td style="font-weight:bold;vertical-align:top;">keywords</td><td style="vertical-align:top;">:</td><td><div>web2py, python, framework, UCI, Delphi,Agricultura</div></td></tr></table></div></td></tr><tr><td style="font-weight:bold;vertical-align:top;">models_to_run</td><td style="vertical-align:top;">:</td><td><div><table><tr><td><div>^\\w+\\.py$</div></td></tr><tr><td><div>^experto/\\w+\\.py$</div></td></tr><tr><td><div>^experto/evaluar/\\w+\\.py$</div></td></tr></table></div></td></tr><tr><td style="font-weight:bold;vertical-align:top;">postprocessing</td><td style="vertical-align:top;">:</td><td><div><table></table></div></td></tr><tr><td style="font-weight:bold;vertical-align:top;">session_client</td><td style="vertical-align:top;">:</td><td><div>127.0.0.1</div></td></tr><tr><td style="font-weight:bold;vertical-align:top;">session_cookie_compression_level</td><td style="vertical-align:top;">:</td><td><div>None</div></td></tr><tr><td style="font-weight:bold;vertical-align:top;">session_cookie_expires</td><td style="vertical-align:top;">:</td><td><div>None</div></td></tr><tr><td style="font-weight:bold;vertical-align:top;">session_cookie_key</td><td style="vertical-align:top;">:</td><td><div>None</div></td></tr><tr><td style="font-weight:bold;vertical-align:top;">session_data_name</td><td style="vertical-align:top;">:</td><td><div>session_data_seeda</div></td></tr><tr><td style="font-weight:bold;vertical-align:top;">session_file</td><td style="vertical-align:top;">:</td><td><div>&lt;open file &#x27;D:\\web2py\\applications\\seeda\\sessions\\1c7\\0b8\\127.0.0.1-09597b02-9085-42f0-bf2d-1cd5d472dc14&#x27;, mode &#x27;rb+&#x27; at 0x09260B78&gt;</div></td></tr><tr><td style="font-weight:bold;vertical-align:top;">session_filename</td><td style="vertical-align:top;">:</td><td><div>D:\\web2py\\applications\\seeda\\sessions\\127.0.0.1-09597b02-9085-42f0-bf2d-1cd5d472dc14</div></td></tr><tr><td style="font-weight:bold;vertical-align:top;">session_hash</td><td style="vertical-align:top;">:</td><td><div>8c5f46e65a9a2dea70074e2f15e2e5cf</div></td></tr><tr><td style="font-weight:bold;vertical-align:top;">session_id</td><td style="vertical-align:top;">:</td><td><div>127.0.0.1-09597b02-9085-42f0-bf2d-1cd5d472dc14</div></td></tr><tr><td style="font-weight:bold;vertical-align:top;">session_id_name</td><td style="vertical-align:top;">:</td><td><div>session_id_seeda</div></td></tr><tr><td style="font-weight:bold;vertical-align:top;">session_locked</td><td style="vertical-align:top;">:</td><td><div>True</div></td></tr><tr><td style="font-weight:bold;vertical-align:top;">session_masterapp</td><td style="vertical-align:top;">:</td><td><div>seeda</div></td></tr><tr><td style="font-weight:bold;vertical-align:top;">session_new</td><td style="vertical-align:top;">:</td><td><div>False</div></td></tr><tr><td style="font-weight:bold;vertical-align:top;">session_storage_type</td><td style="vertical-align:top;">:</td><td><div>file</div></td></tr><tr><td style="font-weight:bold;vertical-align:top;">status</td><td style="vertical-align:top;">:</td><td><div>200</div></td></tr><tr><td style="font-weight:bold;vertical-align:top;">subtitle</td><td style="vertical-align:top;">:</td><td><div></div></td></tr><tr><td style="font-weight:bold;vertical-align:top;">title</td><td style="vertical-align:top;">:</td><td><div>Seeda</div></td></tr><tr><td style="font-weight:bold;vertical-align:top;">view</td><td style="vertical-align:top;">:</td><td><div>experto/evaluar.html</div></td></tr></table></div>'
tRp203
sS'locals'
p204
(dp205
S'self'
p206
S'<Table evaluaciones (id,id_solicitudes,id_aspectossolicitud,id_experto,evaluacion,delphi)>'
p207
sS'key'
p208
S"'evaluacion2'"
p209
sssS'traceback'
p210
S'Traceback (most recent call last):\n  File "D:\\web2py\\gluon\\restricted.py", line 224, in restricted\n    exec ccode in environment\n  File "D:\\web2py\\applications\\seeda\\controllers/experto.py", line 317, in <module>\n  File "D:\\web2py\\gluon\\globals.py", line 393, in <lambda>\n    self._caller = lambda f: f()\n  File "D:\\web2py\\gluon\\tools.py", line 3444, in f\n    return action(*a, **b)\n  File "D:\\web2py\\applications\\seeda\\controllers/experto.py", line 18, in evaluar\n    db.evaluaciones.evaluacion2.readable = False\n  File "D:\\web2py\\gluon\\dal\\objects.py", line 516, in __getitem__\n    return ogetattr(self, str(key))\nAttributeError: \'Table\' object has no attribute \'evaluacion2\'\n'
p211
s.