(dp1
S'output'
p2
S"<type 'exceptions.IndexError'> list index out of range"
p3
sS'layer'
p4
S'D:\\web2py\\applications\\seeda\\controllers/experto.py'
p5
sS'code'
p6
S'# coding=utf-8\n__author__ = \'Miguel Antonio\'\n\nfrom gluon.tools import Expose\n\nmostrarmenu2()\n\n\ndef index():\n    redirect(URL(c=\'default\', f=\'index\'))\n    return\n\n\n@auth.requires_membership(role="Experto")\ndef evaluar():\n    db.evaluaciones.id_solicitudes.readable = False\n    db.evaluaciones.evaluacion2.readable = False\n    db.evaluaciones.ronda.writable = False\n    db.evaluaciones.delphi.readable = False\n    db.evaluaciones.evaluacion2.writable = False\n    db.evaluaciones.delphi.writable = False\n    consulta = (db.evaluaciones.evaluacion == "Sin evaluaci\xc3\xb3n") & (\n        db.evaluaciones.id_experto == db.expertosasociados.id) & (\n                   db.expertosasociados.id_usuario == auth.user_id)\n    form_evaluar = SQLFORM.grid(consulta, deletable=False, create=False, paginate=10, details=False,\n                                field_id=db.evaluaciones.id)\n    if request.args(0) == \'edit\':\n        formulario = form_evaluar.components[1]\n        if formulario.process().accepted:\n            aux2(request.args(2))\n            redirect(URL(c=\'experto\', f=\'evaluar\'))\n    return dict(form=form_evaluar)\n\n\n@auth.requires_membership(role="Experto")\ndef evaluar2():\n    db.evaluaciones.evaluacion2.readable = False\n    db.evaluaciones.evaluacion2.writable = True\n    db.evaluaciones.evaluacion.writable = 0\n    db.evaluaciones.delphi.writable = 0\n    consulta = (db.evaluaciones.evaluacion2 == "Sin evaluaci\xc3\xb3n") & (\n        db.evaluaciones.id_experto == db.expertosasociados.id) & (\n                   db.expertosasociados.id_usuario == auth.user_id)  & (\n                   db.evaluaciones.ronda == 2)\n    form_evaluar2 = SQLFORM.grid(consulta, create=False, user_signature=0, field_id=db.evaluaciones.id,\n                                 deletable=False, paginate=10\n    )\n    if request.args(0) == \'edit\':\n        formulario = form_evaluar2.components[1]\n        if formulario.process().accepted:\n            aux2(request.args(2))\n            redirect(URL(c=\'experto\', f=\'evaluar2\'))\n    return dict(form=form_evaluar2)\n\n\n@auth.requires_membership(role="Experto")\ndef ronda1():\n    id_solicitud = request.args(0)\n    id_aspecto = request.args(1)\n    consulta = (db.evaluaciones.id_solicitudes == id_solicitud) & (\n        db.evaluaciones.id_aspectossolicitud == id_aspecto) & (db.evaluaciones.evaluacion != "")\n    form_ronda1 = SQLFORM.grid(consulta, user_signature=0, deletable=False, editable=False, paginate=10, create=False)\n    return dict(form=form_ronda1)\n\n\n@auth.requires_membership(role="Experto")\ndef mis_evaluaciones():\n    db.evaluaciones.id_solicitudes.readable = False\n    db.evaluaciones.ronda.readable = True\n    consulta = (db.evaluaciones.evaluacion != \'Null\') & (db.evaluaciones.id_experto == db.expertosasociados.id) & (\n        db.expertosasociados.id_usuario == auth.user_id)\n    form1 = SQLFORM.grid(consulta, deletable=False, create=False, details=False, paginate=10, editable=False)\n    return dict(form1=form1)\n\n\ndef aux2(id_evaluacion):\n    consulta = db(db.evaluaciones.id == id_evaluacion).select(db.evaluaciones.id_solicitudes,\n                                                              db.evaluaciones.ronda).first()\n    id_solicitud = consulta[\'id_solicitudes\']\n    print(id_solicitud)\n    ronda = consulta[\'ronda\']\n    contar = db((db.evaluaciones.id_solicitudes == id_solicitud) & (db.evaluaciones.evaluacion == "Sin evaluaci\xc3\xb3n") & (\n        db.evaluaciones.ronda == 1)).count()\n    if ((contar == 0) & (ronda == "1")):\n        delphi(id_solicitud)\n        c = (db.solicitudes.id == id_solicitud)\n        miset = db(c)\n        miset.update(estado="En ronda 2")\n        c2 = db(db.evaluaciones.id_solicitudes == id_solicitud).update(ronda=2)\n    elif ((contar>0)&(ronda=="1")):\n        return locals()\n    contar = db((db.evaluaciones.id_solicitudes == id_solicitud) & (\n            db.evaluaciones.ronda == 2) & (db.evaluaciones.evaluacion2 == "Sin evaluaci\xc3\xb3n")).count()\n    if contar == 0:\n        delphi(id_solicitud)\n        c = (db.solicitudes.id == id_solicitud)\n        miset = db(c)\n        miset.update(estado="Evaluada")\n\n\n\n\ndef delphi(id_solicitud):\n\n    #Consulta para obtener los datos sobre los que se va a trabajar\n    evaluaciones = db(db.evaluaciones.id_solicitudes == id_solicitud) \\\n        .select(db.evaluaciones.id_solicitudes, db.evaluaciones.id_aspectossolicitud, db.evaluaciones.evaluacion,\n                db.evaluaciones.delphi, orderby=db.evaluaciones.id_aspectossolicitud)\n    cant_aspectos = db(db.evaluaciones.id_solicitudes == id_solicitud).select(\n        db.evaluaciones.id_aspectossolicitud, groupby=db.evaluaciones.id_aspectossolicitud)\n    print(\'eva, cant asp\')\n    print(evaluaciones,cant_aspectos)\n    #Conteo de la cantidad de aspectos a evaluar y cantidad de evaluaciones emitidas\n    contar_aspectos = 0\n    for cant_aspecto in cant_aspectos:\n        contar_aspectos += 1\n    contar_evaluaciones = 0\n    for evaluacion in evaluaciones:\n        contar_evaluaciones += 1\n        #Declaraciones de listas y variables auxiliares\n    conteo_de_evaluaciones = [0] * 5\n    x = 0\n    y = 0\n    c = 0\n    mf = [0] * contar_aspectos\n    lista_d_evaluaciones = [0] * contar_evaluaciones\n\n    #(-_-)#PASO 1 DEL METODO DELPHI#(-_-)#\n    #Creaci\xc3\xb3n de la matriz de frecuencia#\n    for evaluacion in evaluaciones:\n        lista_d_evaluaciones[y] = evaluacion.evaluacion\n        y += 1\n    while x < contar_evaluaciones:\n        y = 0\n        while y < contar_evaluaciones / contar_aspectos:\n            if lista_d_evaluaciones[x] == "Muy Mal":\n                var0 = conteo_de_evaluaciones[0]\n                conteo_de_evaluaciones[0] = var0 + 1\n            elif lista_d_evaluaciones[x] == "Mal":\n                var1 = conteo_de_evaluaciones[1]\n                conteo_de_evaluaciones[1] = var1 + 1\n            elif lista_d_evaluaciones[x] == "Regular":\n                var2 = conteo_de_evaluaciones[2]\n                conteo_de_evaluaciones[2] = var2 + 1\n            elif lista_d_evaluaciones[x] == "Bien":\n                var3 = conteo_de_evaluaciones[3]\n                conteo_de_evaluaciones[3] = var3 + 1\n            else:\n                var4 = conteo_de_evaluaciones[4]\n                conteo_de_evaluaciones[4] = var4 + 1\n            y += 1\n            x += 1\n        mf[c] = conteo_de_evaluaciones\n        conteo_de_evaluaciones = [0] * 5\n        c += 1\n    print(\'MF\',mf)\n    #(-_-)#PASO 2 DEL METODO DELPHI#(-_-)#\n    #Creaci\xc3\xb3n de la matriz de frecuencias acumuladas#\n    mfa = []\n    lista_aux = []\n    x = 0\n    while x < contar_aspectos:\n        y = 0\n        lista_aux.append(mf[x][0])\n        while y < 4:\n            var1 = lista_aux[y]\n            var2 = mf[x][y + 1]\n            lista_aux.append(var1 + var2)\n            y += 1\n        x += 1\n        mfa.append(lista_aux)\n        lista_aux = []\n    print(\'MFA\')\n    print(mfa)\n    #(-_-)#PASO 3 DEL METODO DELPHI#(-_-)#\n    #Creaci\xc3\xb3n de la matriz de frecuencias acumuladas relativas#\n    mfar = [0] * contar_aspectos\n    x = 0\n    while x < contar_aspectos:\n        y = 0\n        while y < 5:\n            lista_aux.append(mfa[x][y] * 1.00 / (contar_evaluaciones / contar_aspectos))\n            y += 1\n        mfar[x] = lista_aux\n        lista_aux = []\n        x += 1\n    print(\'MFAR\')\n    print(mfar)\n    #(-_-)#PASO 4 DEL METODO DELPHI#(-_-)#\n    #Obtenci\xc3\xb3n del inverso de la distribuci\xc3\xb3n normal est\xc3\xa1ndar acumulativa#\n    mfinal = [0] * contar_aspectos\n    x = 0\n    while x < contar_aspectos:\n        y = 0\n        while y < 5:\n            z = mfar[x][y] * 100\n            w = z.__int__()\n            z = w / 100.0\n            datos = db(db.valores.valor == z).select(db.valores.idnea)\n            for dato in datos:\n                lista_aux.append(dato.idnea)\n            y += 1\n        mfinal[x] = lista_aux\n        lista_aux = []\n        x += 1\n    print(\'MFINAL\')\n    print(mfinal)\n    #(-_-)#PASO 5 DEL METODO DELPHI#(-_-)#\n    #C\xc3\xa1lculo del resultado final#\n\n    #Sumatoria del valor de los aspectos#\n    sumatoriah = [0] * contar_aspectos\n    x = 0\n    while x < contar_aspectos:\n        y = 0\n        z = 0\n        while y < 4:\n            z = z + mfinal[x][y]\n            y += 1\n        sumatoriah[x] = z\n        x += 1\n\n    #Sumatoria del valor de los criterios#\n    sumatoriav = [0] * 4\n    x = 0\n    while x < 4:\n        y = 0\n        z = 0\n        while y < contar_aspectos:\n            z = z + mfinal[y][x]\n            y += 1\n        sumatoriav[x] = z\n        x += 1\n\n    #Promedio del valor de los aspectos#\n    promedio = [0] * contar_aspectos\n    x = 0\n    while x < contar_aspectos:\n        z = sumatoriah[x] / 5.0\n        promedio[x] = z\n        x += 1\n\n    #C\xc3\xa1lculo del valor d N#\n    n = 0\n    x = 0\n    z = 0\n    while x < contar_aspectos:\n        z = z + sumatoriah[x]\n        x += 1\n    n = z / (5.0 * contar_aspectos)\n\n    #Promedio - N#\n    x = 0\n    while x < promedio.__len__():\n        y = promedio[x]\n        promedio[x] = y - n\n        x += 1\n    print(\'Promedios\')\n    print(promedio)\n\n    #C\xc3\xa1lculo de los l\xc3\xadmites#\n    limites = [0] * 4\n    x = 0\n    while x < 4:\n        limites[x] = sumatoriav[x] / contar_aspectos\n        x += 1\n    print(\'L\xc3\xadmites\')\n    print(limites)\n\n    #Clasificaci\xc3\xb3n de los elementos\n    x = 0\n    id_aspectos_solicitud = []\n    for aspect in cant_aspectos:\n        id_aspectos_solicitud.append(aspect.id_aspectossolicitud)\n    while x < contar_aspectos:\n        elemento = promedio[x]\n        if elemento >= limites[3]:\n            actualiza(4, id_solicitud, id_aspectos_solicitud[x])\n        elif elemento >= limites[2]:\n            actualiza(3, id_solicitud, id_aspectos_solicitud[x])\n        elif elemento >= limites[1]:\n            actualiza(2, id_solicitud, id_aspectos_solicitud[x])\n        elif elemento >= limites[0]:\n            actualiza(1, id_solicitud, id_aspectos_solicitud[x])\n        else:\n            actualiza(0, id_solicitud, id_aspectos_solicitud[x])\n        x += 1\n    return\n\ndef actualiza(clasificacion, id_solicitud, aspecto):\n    rondas = db(db.evaluaciones.id_solicitudes == id_solicitud).select(db.evaluaciones.ronda)\n    for ronda in rondas:\n        x = ronda.ronda\n    if x == \'1\':\n        if clasificacion == 0:\n            db((db.evaluaciones.id_solicitudes == id_solicitud) & (\n                db.evaluaciones.id_aspectossolicitud == aspecto)).update(delphi=\'Muy Bien\')\n        elif clasificacion == 1:\n            db((db.evaluaciones.id_solicitudes == id_solicitud) & (\n                db.evaluaciones.id_aspectossolicitud == aspecto)).update(delphi=\'Bien\')\n        elif clasificacion == 2:\n            db((db.evaluaciones.id_solicitudes == id_solicitud) & (\n                db.evaluaciones.id_aspectossolicitud == aspecto)).update(delphi=\'Regular\')\n        elif clasificacion == 3:\n            db((db.evaluaciones.id_solicitudes == id_solicitud) & (\n                db.evaluaciones.id_aspectossolicitud == aspecto)).update(delphi=\'Mal\')\n        elif clasificacion == 4:\n            db((db.evaluaciones.id_solicitudes == id_solicitud) & (\n                db.evaluaciones.id_aspectossolicitud == aspecto)).update(delphi=\'Muy Mal\')\n    elif x == \'2\':\n        if clasificacion == 0:\n            db((db.aspectossolicitud.id_solicitudes == id_solicitud) & (\n                db.aspectossolicitud.id == aspecto)).update(evaluacionfinal=\'Muy Bien\')\n        elif clasificacion == 1:\n            db((db.aspectossolicitud.id_solicitudes == id_solicitud) & (\n                db.aspectossolicitud.id == aspecto)).update(evaluacionfinal=\'Bien\')\n        elif clasificacion == 2:\n            db((db.aspectossolicitud.id_solicitudes == id_solicitud) & (\n                db.aspectossolicitud.id == aspecto)).update(evaluacionfinal=\'Regular\')\n        elif clasificacion == 3:\n            db((db.aspectossolicitud.id_solicitudes == id_solicitud) & (\n                db.aspectossolicitud.id == aspecto)).update(evaluacionfinal=\'Mal\')\n        elif clasificacion == 4:\n            db((db.aspectossolicitud.id_solicitudes == id_solicitud) & (\n                db.aspectossolicitud.id == aspecto)).update(evaluacionfinal=\'Muy Mal\')\n    return\n\nresponse._vars=response._caller(evaluar)\n'
p7
sS'snapshot'
p8
(dp9
S'exception'
p10
(dp11
S'__hash__'
p12
S"<method-wrapper '__hash__' of exceptions.IndexError object>"
p13
sS'__setattr__'
p14
S"<method-wrapper '__setattr__' of exceptions.IndexError object>"
p15
sS'__reduce_ex__'
p16
S'<built-in method __reduce_ex__ of exceptions.IndexError object>'
p17
sS'__getslice__'
p18
S"<method-wrapper '__getslice__' of exceptions.IndexError object>"
p19
sS'__getitem__'
p20
S"<method-wrapper '__getitem__' of exceptions.IndexError object>"
p21
sS'__setstate__'
p22
S'<built-in method __setstate__ of exceptions.IndexError object>'
p23
sS'__reduce__'
p24
S'<built-in method __reduce__ of exceptions.IndexError object>'
p25
sS'__str__'
p26
S"<method-wrapper '__str__' of exceptions.IndexError object>"
p27
sS'__format__'
p28
S'<built-in method __format__ of exceptions.IndexError object>'
p29
sS'__getattribute__'
p30
S"<method-wrapper '__getattribute__' of exceptions.IndexError object>"
p31
sS'__class__'
p32
S"<type 'exceptions.IndexError'>"
p33
sS'__unicode__'
p34
S'<built-in method __unicode__ of exceptions.IndexError object>'
p35
sS'__delattr__'
p36
S"<method-wrapper '__delattr__' of exceptions.IndexError object>"
p37
sS'__subclasshook__'
p38
S'<built-in method __subclasshook__ of type object>'
p39
sS'__repr__'
p40
S"<method-wrapper '__repr__' of exceptions.IndexError object>"
p41
sS'args'
p42
S"('list index out of range',)"
p43
sS'__dict__'
p44
S'{}'
p45
sS'__sizeof__'
p46
S'<built-in method __sizeof__ of exceptions.IndexError object>'
p47
sS'__doc__'
p48
S"'Sequence index out of range.'"
p49
sS'__init__'
p50
S"<method-wrapper '__init__' of exceptions.IndexError object>"
p51
sS'__new__'
p52
S'<built-in method __new__ of type object>'
p53
ssS'evalue'
p54
S'list index out of range'
p55
sS'request'
p56
cgluon.html
XML_unpickle
p57
(S's\xccf\x00\x00<div><table><tr><td style="font-weight:bold;vertical-align:top;">ajax</td><td style="vertical-align:top;">:</td><td><div>False</div></td></tr><tr><td style="font-weight:bold;vertical-align:top;">application</td><td style="vertical-align:top;">:</td><td><div>seeda</div></td></tr><tr><td style="font-weight:bold;vertical-align:top;">args</td><td style="vertical-align:top;">:</td><td><div><table><tr><td><div>edit</div></td></tr><tr><td><div>evaluaciones</div></td></tr><tr><td><div>180</div></td></tr></table></div></td></tr><tr><td style="font-weight:bold;vertical-align:top;">cid</td><td style="vertical-align:top;">:</td><td><div>None</div></td></tr><tr><td style="font-weight:bold;vertical-align:top;">client</td><td style="vertical-align:top;">:</td><td><div>127.0.0.1</div></td></tr><tr><td style="font-weight:bold;vertical-align:top;">controller</td><td style="vertical-align:top;">:</td><td><div>experto</div></td></tr><tr><td style="font-weight:bold;vertical-align:top;">cookies</td><td style="vertical-align:top;">:</td><td><div><table><tr><td style="font-weight:bold;vertical-align:top;">session_id_admin</td><td style="vertical-align:top;">:</td><td><div>127.0.0.1-1ee1fb9d-8d8a-4377-bea0-b1e02f237d91<table><tr><td style="font-weight:bold;vertical-align:top;">comment</td><td style="vertical-align:top;">:</td><td><div></div></td></tr><tr><td style="font-weight:bold;vertical-align:top;">domain</td><td style="vertical-align:top;">:</td><td><div></div></td></tr><tr><td style="font-weight:bold;vertical-align:top;">expires</td><td style="vertical-align:top;">:</td><td><div></div></td></tr><tr><td style="font-weight:bold;vertical-align:top;">httponly</td><td style="vertical-align:top;">:</td><td><div></div></td></tr><tr><td style="font-weight:bold;vertical-align:top;">max-age</td><td style="vertical-align:top;">:</td><td><div></div></td></tr><tr><td style="font-weight:bold;vertical-align:top;">path</td><td style="vertical-align:top;">:</td><td><div></div></td></tr><tr><td style="font-weight:bold;vertical-align:top;">secure</td><td style="vertical-align:top;">:</td><td><div></div></td></tr><tr><td style="font-weight:bold;vertical-align:top;">version</td><td style="vertical-align:top;">:</td><td><div></div></td></tr></table></div></td></tr><tr><td style="font-weight:bold;vertical-align:top;">session_id_seeda</td><td style="vertical-align:top;">:</td><td><div>127.0.0.1-5ef7e932-8537-4999-b8bb-db4cd438a095<table><tr><td style="font-weight:bold;vertical-align:top;">comment</td><td style="vertical-align:top;">:</td><td><div></div></td></tr><tr><td style="font-weight:bold;vertical-align:top;">domain</td><td style="vertical-align:top;">:</td><td><div></div></td></tr><tr><td style="font-weight:bold;vertical-align:top;">expires</td><td style="vertical-align:top;">:</td><td><div></div></td></tr><tr><td style="font-weight:bold;vertical-align:top;">httponly</td><td style="vertical-align:top;">:</td><td><div></div></td></tr><tr><td style="font-weight:bold;vertical-align:top;">max-age</td><td style="vertical-align:top;">:</td><td><div></div></td></tr><tr><td style="font-weight:bold;vertical-align:top;">path</td><td style="vertical-align:top;">:</td><td><div></div></td></tr><tr><td style="font-weight:bold;vertical-align:top;">secure</td><td style="vertical-align:top;">:</td><td><div></div></td></tr><tr><td style="font-weight:bold;vertical-align:top;">version</td><td style="vertical-align:top;">:</td><td><div></div></td></tr></table></div></td></tr><tr><td style="font-weight:bold;vertical-align:top;">session_id_welcome</td><td style="vertical-align:top;">:</td><td><div>127.0.0.1-ce3b1122-86b8-443c-a49d-6fb83be09bb8<table><tr><td style="font-weight:bold;vertical-align:top;">comment</td><td style="vertical-align:top;">:</td><td><div></div></td></tr><tr><td style="font-weight:bold;vertical-align:top;">domain</td><td style="vertical-align:top;">:</td><td><div></div></td></tr><tr><td style="font-weight:bold;vertical-align:top;">expires</td><td style="vertical-align:top;">:</td><td><div></div></td></tr><tr><td style="font-weight:bold;vertical-align:top;">httponly</td><td style="vertical-align:top;">:</td><td><div></div></td></tr><tr><td style="font-weight:bold;vertical-align:top;">max-age</td><td style="vertical-align:top;">:</td><td><div></div></td></tr><tr><td style="font-weight:bold;vertical-align:top;">path</td><td style="vertical-align:top;">:</td><td><div></div></td></tr><tr><td style="font-weight:bold;vertical-align:top;">secure</td><td style="vertical-align:top;">:</td><td><div></div></td></tr><tr><td style="font-weight:bold;vertical-align:top;">version</td><td style="vertical-align:top;">:</td><td><div></div></td></tr></table></div></td></tr></table></div></td></tr><tr><td style="font-weight:bold;vertical-align:top;">env</td><td style="vertical-align:top;">:</td><td><div><table><tr><td style="font-weight:bold;vertical-align:top;">CONTENT_LENGTH</td><td style="vertical-align:top;">:</td><td><div>480</div></td></tr><tr><td style="font-weight:bold;vertical-align:top;">CONTENT_TYPE</td><td style="vertical-align:top;">:</td><td><div>multipart/form-data; boundary=----WebKitFormBoundaryRdawfBU1YzAXBbbL</div></td></tr><tr><td style="font-weight:bold;vertical-align:top;">HTTP_ACCEPT</td><td style="vertical-align:top;">:</td><td><div>text/html,application/xhtml+xml,application/xml;q=0.9,image/webp,*/*;q=0.8</div></td></tr><tr><td style="font-weight:bold;vertical-align:top;">HTTP_ACCEPT_ENCODING</td><td style="vertical-align:top;">:</td><td><div>gzip, deflate</div></td></tr><tr><td style="font-weight:bold;vertical-align:top;">HTTP_ACCEPT_LANGUAGE</td><td style="vertical-align:top;">:</td><td><div>en,es;q=0.8</div></td></tr><tr><td style="font-weight:bold;vertical-align:top;">HTTP_CACHE_CONTROL</td><td style="vertical-align:top;">:</td><td><div>max-age=0</div></td></tr><tr><td style="font-weight:bold;vertical-align:top;">HTTP_CONNECTION</td><td style="vertical-align:top;">:</td><td><div>keep-alive</div></td></tr><tr><td style="font-weight:bold;vertical-align:top;">HTTP_CONTENT_LENGTH</td><td style="vertical-align:top;">:</td><td><div>480</div></td></tr><tr><td style="font-weight:bold;vertical-align:top;">HTTP_CONTENT_TYPE</td><td style="vertical-align:top;">:</td><td><div>multipart/form-data; boundary=----WebKitFormBoundaryRdawfBU1YzAXBbbL</div></td></tr><tr><td style="font-weight:bold;vertical-align:top;">HTTP_COOKIE</td><td style="vertical-align:top;">:</td><td><div>session_id_welcome=127.0.0.1-ce3b1122-86b8-443c-a49d-6fb83be09bb8; session_id_admin=127.0.0.1-1ee1fb9d-8d8a-4377-bea0-b1e02f237d91; session_id_seeda=127.0.0.1-5ef7e932-8537-4999-b8bb-db4cd438a095</div></td></tr><tr><td style="font-weight:bold;vertical-align:top;">HTTP_HOST</td><td style="vertical-align:top;">:</td><td><div>127.0.0.1:8000</div></td></tr><tr><td style="font-weight:bold;vertical-align:top;">HTTP_ORIGIN</td><td style="vertical-align:top;">:</td><td><div>http://127.0.0.1:8000</div></td></tr><tr><td style="font-weight:bold;vertical-align:top;">HTTP_REFERER</td><td style="vertical-align:top;">:</td><td><div>http://127.0.0.1:8000/seeda/experto/evaluar/edit/evaluaciones/180?_signature=fb8e803a4808c66c25e2f2b04de14a4751320623</div></td></tr><tr><td style="font-weight:bold;vertical-align:top;">HTTP_UPGRADE_INSECURE_REQUESTS</td><td style="vertical-align:top;">:</td><td><div>1</div></td></tr><tr><td style="font-weight:bold;vertical-align:top;">HTTP_USER_AGENT</td><td style="vertical-align:top;">:</td><td><div>Mozilla/5.0 (Windows NT 10.0; WOW64) AppleWebKit/537.36 (KHTML, like Gecko) Chrome/49.0.2623.110 Safari/537.36</div></td></tr><tr><td style="font-weight:bold;vertical-align:top;">PATH_INFO</td><td style="vertical-align:top;">:</td><td><div>/seeda/experto/evaluar/edit/evaluaciones/180</div></td></tr><tr><td style="font-weight:bold;vertical-align:top;">QUERY_STRING</td><td style="vertical-align:top;">:</td><td><div>_signature=fb8e803a4808c66c25e2f2b04de14a4751320623</div></td></tr><tr><td style="font-weight:bold;vertical-align:top;">REMOTE_ADDR</td><td style="vertical-align:top;">:</td><td><div>127.0.0.1</div></td></tr><tr><td style="font-weight:bold;vertical-align:top;">REMOTE_PORT</td><td style="vertical-align:top;">:</td><td><div>49846</div></td></tr><tr><td style="font-weight:bold;vertical-align:top;">REQUEST_METHOD</td><td style="vertical-align:top;">:</td><td><div>POST</div></td></tr><tr><td style="font-weight:bold;vertical-align:top;">SCRIPT_NAME</td><td style="vertical-align:top;">:</td><td><div></div></td></tr><tr><td style="font-weight:bold;vertical-align:top;">SERVER_NAME</td><td style="vertical-align:top;">:</td><td><div>DESKTOP-RRU69RV</div></td></tr><tr><td style="font-weight:bold;vertical-align:top;">SERVER_PORT</td><td style="vertical-align:top;">:</td><td><div>8000</div></td></tr><tr><td style="font-weight:bold;vertical-align:top;">SERVER_PROTOCOL</td><td style="vertical-align:top;">:</td><td><div>HTTP/1.1</div></td></tr><tr><td style="font-weight:bold;vertical-align:top;">SERVER_SOFTWARE</td><td style="vertical-align:top;">:</td><td><div>Rocket 1.2.6</div></td></tr><tr><td style="font-weight:bold;vertical-align:top;">app_folders</td><td style="vertical-align:top;">:</td><td><div>set([&#x27;D:\\\\web2py\\\\applications\\\\seeda\\\\&#x27;, &#x27;D:\\\\web2py\\\\applications\\\\admin\\\\&#x27;, &#x27;D:\\\\web2py\\\\applications\\\\welcome\\\\&#x27;])</div></td></tr><tr><td style="font-weight:bold;vertical-align:top;">applications_parent</td><td style="vertical-align:top;">:</td><td><div>D:\\web2py</div></td></tr><tr><td style="font-weight:bold;vertical-align:top;">cmd_args</td><td style="vertical-align:top;">:</td><td><div><table></table></div></td></tr><tr><td style="font-weight:bold;vertical-align:top;">cmd_options</td><td style="vertical-align:top;">:</td><td><div>&lt;Values at 0x36646c0: {&#x27;verbose&#x27;: False, &#x27;ip&#x27;: &#x27;127.0.0.1&#x27;, &#x27;debuglevel&#x27;: 30, &#x27;with_scheduler&#x27;: False, &#x27;ips&#x27;: [], &#x27;shutdown_timeout&#x27;: 5, &#x27;taskbar&#x27;: False, &#x27;with_coverage&#x27;: False, &#x27;scheduler_groups&#x27;: None, &#x27;port&#x27;: 8000, &#x27;maxthreads&#x27;: None, &#x27;softcron&#x27;: False, &#x27;server_name&#x27;: &#x27;DESKTOP-RRU69RV&#x27;, &#x27;bpython&#x27;: False, &#x27;nogui&#x27;: False, &#x27;pid_filename&#x27;: &#x27;httpserver.pid&#x27;, &#x27;extcron&#x27;: False, &#x27;runcron&#x27;: False, &#x27;run_system_tests&#x27;: False, &#x27;test&#x27;: None, &#x27;folder&#x27;: &#x27;D:\\\\web2py&#x27;, &#x27;config&#x27;: &#x27;&#x27;, &#x27;minthreads&#x27;: None, &#x27;shell&#x27;: None, &#x27;run&#x27;: &#x27;&#x27;, &#x27;log_filename&#x27;: &#x27;httpserver.log&#x27;, &#x27;profiler_dir&#x27;: None, &#x27;args&#x27;: [&#x27;&#x27;], &#x27;socket_timeout&#x27;: 5, &#x27;ssl_ca_certificate&#x27;: None, &#x27;scheduler&#x27;: None, &#x27;interfaces&#x27;: None, &#x27;ssl_private_key&#x27;: &#x27;&#x27;, &#x27;gae&#x27;: None, &#x27;password&#x27;: &#x27;&lt;ask&gt;&#x27;, &#x27;request_queue_size&#x27;: 5, &#x27;ssl_certificate&#x27;: &#x27;&#x27;, &#x27;cronjob&#x27;: False, &#x27;numthreads&#x27;: None, &#x27;quiet&#x27;: False, &#x27;import_models&#x27;: False, &#x27;timeout&#x27;: 10, &#x27;plain&#x27;: False, &#x27;nobanner&#x27;: False}&gt;</div></td></tr><tr><td style="font-weight:bold;vertical-align:top;">content_length</td><td style="vertical-align:top;">:</td><td><div>480</div></td></tr><tr><td style="font-weight:bold;vertical-align:top;">content_type</td><td style="vertical-align:top;">:</td><td><div>multipart/form-data; boundary=----WebKitFormBoundaryRdawfBU1YzAXBbbL</div></td></tr><tr><td style="font-weight:bold;vertical-align:top;">db_sessions</td><td style="vertical-align:top;">:</td><td><div>set([])</div></td></tr><tr><td style="font-weight:bold;vertical-align:top;">debugging</td><td style="vertical-align:top;">:</td><td><div>False</div></td></tr><tr><td style="font-weight:bold;vertical-align:top;">gluon_parent</td><td style="vertical-align:top;">:</td><td><div>D:\\web2py</div></td></tr><tr><td style="font-weight:bold;vertical-align:top;">http_accept</td><td style="vertical-align:top;">:</td><td><div>text/html,application/xhtml+xml,application/xml;q=0.9,image/webp,*/*;q=0.8</div></td></tr><tr><td style="font-weight:bold;vertical-align:top;">http_accept_encoding</td><td style="vertical-align:top;">:</td><td><div>gzip, deflate</div></td></tr><tr><td style="font-weight:bold;vertical-align:top;">http_accept_language</td><td style="vertical-align:top;">:</td><td><div>en,es;q=0.8</div></td></tr><tr><td style="font-weight:bold;vertical-align:top;">http_cache_control</td><td style="vertical-align:top;">:</td><td><div>max-age=0</div></td></tr><tr><td style="font-weight:bold;vertical-align:top;">http_connection</td><td style="vertical-align:top;">:</td><td><div>keep-alive</div></td></tr><tr><td style="font-weight:bold;vertical-align:top;">http_content_length</td><td style="vertical-align:top;">:</td><td><div>480</div></td></tr><tr><td style="font-weight:bold;vertical-align:top;">http_content_type</td><td style="vertical-align:top;">:</td><td><div>multipart/form-data; boundary=----WebKitFormBoundaryRdawfBU1YzAXBbbL</div></td></tr><tr><td style="font-weight:bold;vertical-align:top;">http_cookie</td><td style="vertical-align:top;">:</td><td><div>session_id_welcome=127.0.0.1-ce3b1122-86b8-443c-a49d-6fb83be09bb8; session_id_admin=127.0.0.1-1ee1fb9d-8d8a-4377-bea0-b1e02f237d91; session_id_seeda=127.0.0.1-5ef7e932-8537-4999-b8bb-db4cd438a095</div></td></tr><tr><td style="font-weight:bold;vertical-align:top;">http_host</td><td style="vertical-align:top;">:</td><td><div>127.0.0.1:8000</div></td></tr><tr><td style="font-weight:bold;vertical-align:top;">http_origin</td><td style="vertical-align:top;">:</td><td><div>http://127.0.0.1:8000</div></td></tr><tr><td style="font-weight:bold;vertical-align:top;">http_referer</td><td style="vertical-align:top;">:</td><td><div>http://127.0.0.1:8000/seeda/experto/evaluar/edit/evaluaciones/180?_signature=fb8e803a4808c66c25e2f2b04de14a4751320623</div></td></tr><tr><td style="font-weight:bold;vertical-align:top;">http_upgrade_insecure_requests</td><td style="vertical-align:top;">:</td><td><div>1</div></td></tr><tr><td style="font-weight:bold;vertical-align:top;">http_user_agent</td><td style="vertical-align:top;">:</td><td><div>Mozilla/5.0 (Windows NT 10.0; WOW64) AppleWebKit/537.36 (KHTML, like Gecko) Chrome/49.0.2623.110 Safari/537.36</div></td></tr><tr><td style="font-weight:bold;vertical-align:top;">is_jython</td><td style="vertical-align:top;">:</td><td><div>False</div></td></tr><tr><td style="font-weight:bold;vertical-align:top;">is_pypy</td><td style="vertical-align:top;">:</td><td><div>False</div></td></tr><tr><td style="font-weight:bold;vertical-align:top;">is_source</td><td style="vertical-align:top;">:</td><td><div>True</div></td></tr><tr><td style="font-weight:bold;vertical-align:top;">local_hosts</td><td style="vertical-align:top;">:</td><td><div><table><tr><td><div>fe80::11f1:c1de:1399:65a2%4</div></td></tr><tr><td><div>fe80::7942:f2e6:65bd:45f1%14</div></td></tr><tr><td><div>DESKTOP-RRU69RV</div></td></tr><tr><td><div>::ffff:127.0.0.1</div></td></tr><tr><td><div>::1</div></td></tr><tr><td><div>10.53.3.8</div></td></tr><tr><td><div>DESKTOP-RRU69RV.uci.cu</div></td></tr><tr><td><div>127.0.0.1</div></td></tr><tr><td><div>192.168.189.1</div></td></tr></table></div></td></tr><tr><td style="font-weight:bold;vertical-align:top;">path_info</td><td style="vertical-align:top;">:</td><td><div>/seeda/experto/evaluar/edit/evaluaciones/180</div></td></tr><tr><td style="font-weight:bold;vertical-align:top;">query_string</td><td style="vertical-align:top;">:</td><td><div>_signature=fb8e803a4808c66c25e2f2b04de14a4751320623</div></td></tr><tr><td style="font-weight:bold;vertical-align:top;">remote_addr</td><td style="vertical-align:top;">:</td><td><div>127.0.0.1</div></td></tr><tr><td style="font-weight:bold;vertical-align:top;">remote_port</td><td style="vertical-align:top;">:</td><td><div>49846</div></td></tr><tr><td style="font-weight:bold;vertical-align:top;">request_method</td><td style="vertical-align:top;">:</td><td><div>POST</div></td></tr><tr><td style="font-weight:bold;vertical-align:top;">request_uri</td><td style="vertical-align:top;">:</td><td><div>/seeda/experto/evaluar/edit/evaluaciones/180?_signature=fb8e803a4808c66c25e2f2b04de14a4751320623</div></td></tr><tr><td style="font-weight:bold;vertical-align:top;">script_name</td><td style="vertical-align:top;">:</td><td><div></div></td></tr><tr><td style="font-weight:bold;vertical-align:top;">server_name</td><td style="vertical-align:top;">:</td><td><div>DESKTOP-RRU69RV</div></td></tr><tr><td style="font-weight:bold;vertical-align:top;">server_port</td><td style="vertical-align:top;">:</td><td><div>8000</div></td></tr><tr><td style="font-weight:bold;vertical-align:top;">server_protocol</td><td style="vertical-align:top;">:</td><td><div>HTTP/1.1</div></td></tr><tr><td style="font-weight:bold;vertical-align:top;">server_software</td><td style="vertical-align:top;">:</td><td><div>Rocket 1.2.6</div></td></tr><tr><td style="font-weight:bold;vertical-align:top;">web2py_path</td><td style="vertical-align:top;">:</td><td><div>D:\\web2py</div></td></tr><tr><td style="font-weight:bold;vertical-align:top;">web2py_version</td><td style="vertical-align:top;">:</td><td><div>2.9.12-stable+timestamp.2015.01.17.06.11.03</div></td></tr><tr><td style="font-weight:bold;vertical-align:top;">wsgi.errors</td><td style="vertical-align:top;">:</td><td><div>&lt;open file &#x27;&lt;stderr&gt;&#x27;, mode &#x27;w&#x27; at 0x00FD50D0&gt;</div></td></tr><tr><td style="font-weight:bold;vertical-align:top;">wsgi.file_wrapper</td><td style="vertical-align:top;">:</td><td><div>&lt;class wsgiref.util.FileWrapper at 0x0361B998&gt;</div></td></tr><tr><td style="font-weight:bold;vertical-align:top;">wsgi.input</td><td style="vertical-align:top;">:</td><td><div>&lt;socket._fileobject object at 0x09010170&gt;</div></td></tr><tr><td style="font-weight:bold;vertical-align:top;">wsgi.multiprocess</td><td style="vertical-align:top;">:</td><td><div>False</div></td></tr><tr><td style="font-weight:bold;vertical-align:top;">wsgi.multithread</td><td style="vertical-align:top;">:</td><td><div>True</div></td></tr><tr><td style="font-weight:bold;vertical-align:top;">wsgi.run_once</td><td style="vertical-align:top;">:</td><td><div>False</div></td></tr><tr><td style="font-weight:bold;vertical-align:top;">wsgi.url_scheme</td><td style="vertical-align:top;">:</td><td><div>http</div></td></tr><tr><td style="font-weight:bold;vertical-align:top;">wsgi.version</td><td style="vertical-align:top;">:</td><td><div><table><tr><td><div>1</div></td></tr><tr><td><div>0</div></td></tr></table></div></td></tr><tr><td style="font-weight:bold;vertical-align:top;">wsgi_errors</td><td style="vertical-align:top;">:</td><td><div>&lt;open file &#x27;&lt;stderr&gt;&#x27;, mode &#x27;w&#x27; at 0x00FD50D0&gt;</div></td></tr><tr><td style="font-weight:bold;vertical-align:top;">wsgi_file_wrapper</td><td style="vertical-align:top;">:</td><td><div>&lt;class wsgiref.util.FileWrapper at 0x0361B998&gt;</div></td></tr><tr><td style="font-weight:bold;vertical-align:top;">wsgi_input</td><td style="vertical-align:top;">:</td><td><div>&lt;socket._fileobject object at 0x09010170&gt;</div></td></tr><tr><td style="font-weight:bold;vertical-align:top;">wsgi_multiprocess</td><td style="vertical-align:top;">:</td><td><div>False</div></td></tr><tr><td style="font-weight:bold;vertical-align:top;">wsgi_multithread</td><td style="vertical-align:top;">:</td><td><div>True</div></td></tr><tr><td style="font-weight:bold;vertical-align:top;">wsgi_run_once</td><td style="vertical-align:top;">:</td><td><div>False</div></td></tr><tr><td style="font-weight:bold;vertical-align:top;">wsgi_url_scheme</td><td style="vertical-align:top;">:</td><td><div>http</div></td></tr><tr><td style="font-weight:bold;vertical-align:top;">wsgi_version</td><td style="vertical-align:top;">:</td><td><div><table><tr><td><div>1</div></td></tr><tr><td><div>0</div></td></tr></table></div></td></tr></table></div></td></tr><tr><td style="font-weight:bold;vertical-align:top;">extension</td><td style="vertical-align:top;">:</td><td><div>html</div></td></tr><tr><td style="font-weight:bold;vertical-align:top;">folder</td><td style="vertical-align:top;">:</td><td><div>D:\\web2py\\applications\\seeda\\</div></td></tr><tr><td style="font-weight:bold;vertical-align:top;">function</td><td style="vertical-align:top;">:</td><td><div>evaluar</div></td></tr><tr><td style="font-weight:bold;vertical-align:top;">global_settings</td><td style="vertical-align:top;">:</td><td><div><table><tr><td style="font-weight:bold;vertical-align:top;">app_folders</td><td style="vertical-align:top;">:</td><td><div>set([&#x27;D:\\\\web2py\\\\applications\\\\seeda\\\\&#x27;, &#x27;D:\\\\web2py\\\\applications\\\\admin\\\\&#x27;, &#x27;D:\\\\web2py\\\\applications\\\\welcome\\\\&#x27;])</div></td></tr><tr><td style="font-weight:bold;vertical-align:top;">applications_parent</td><td style="vertical-align:top;">:</td><td><div>D:\\web2py</div></td></tr><tr><td style="font-weight:bold;vertical-align:top;">cmd_args</td><td style="vertical-align:top;">:</td><td><div><table></table></div></td></tr><tr><td style="font-weight:bold;vertical-align:top;">cmd_options</td><td style="vertical-align:top;">:</td><td><div>&lt;Values at 0x36646c0: {&#x27;verbose&#x27;: False, &#x27;ip&#x27;: &#x27;127.0.0.1&#x27;, &#x27;debuglevel&#x27;: 30, &#x27;with_scheduler&#x27;: False, &#x27;ips&#x27;: [], &#x27;shutdown_timeout&#x27;: 5, &#x27;taskbar&#x27;: False, &#x27;with_coverage&#x27;: False, &#x27;scheduler_groups&#x27;: None, &#x27;port&#x27;: 8000, &#x27;maxthreads&#x27;: None, &#x27;softcron&#x27;: False, &#x27;server_name&#x27;: &#x27;DESKTOP-RRU69RV&#x27;, &#x27;bpython&#x27;: False, &#x27;nogui&#x27;: False, &#x27;pid_filename&#x27;: &#x27;httpserver.pid&#x27;, &#x27;extcron&#x27;: False, &#x27;runcron&#x27;: False, &#x27;run_system_tests&#x27;: False, &#x27;test&#x27;: None, &#x27;folder&#x27;: &#x27;D:\\\\web2py&#x27;, &#x27;config&#x27;: &#x27;&#x27;, &#x27;minthreads&#x27;: None, &#x27;shell&#x27;: None, &#x27;run&#x27;: &#x27;&#x27;, &#x27;log_filename&#x27;: &#x27;httpserver.log&#x27;, &#x27;profiler_dir&#x27;: None, &#x27;args&#x27;: [&#x27;&#x27;], &#x27;socket_timeout&#x27;: 5, &#x27;ssl_ca_certificate&#x27;: None, &#x27;scheduler&#x27;: None, &#x27;interfaces&#x27;: None, &#x27;ssl_private_key&#x27;: &#x27;&#x27;, &#x27;gae&#x27;: None, &#x27;password&#x27;: &#x27;&lt;ask&gt;&#x27;, &#x27;request_queue_size&#x27;: 5, &#x27;ssl_certificate&#x27;: &#x27;&#x27;, &#x27;cronjob&#x27;: False, &#x27;numthreads&#x27;: None, &#x27;quiet&#x27;: False, &#x27;import_models&#x27;: False, &#x27;timeout&#x27;: 10, &#x27;plain&#x27;: False, &#x27;nobanner&#x27;: False}&gt;</div></td></tr><tr><td style="font-weight:bold;vertical-align:top;">db_sessions</td><td style="vertical-align:top;">:</td><td><div>set([])</div></td></tr><tr><td style="font-weight:bold;vertical-align:top;">debugging</td><td style="vertical-align:top;">:</td><td><div>False</div></td></tr><tr><td style="font-weight:bold;vertical-align:top;">gluon_parent</td><td style="vertical-align:top;">:</td><td><div>D:\\web2py</div></td></tr><tr><td style="font-weight:bold;vertical-align:top;">is_jython</td><td style="vertical-align:top;">:</td><td><div>False</div></td></tr><tr><td style="font-weight:bold;vertical-align:top;">is_pypy</td><td style="vertical-align:top;">:</td><td><div>False</div></td></tr><tr><td style="font-weight:bold;vertical-align:top;">is_source</td><td style="vertical-align:top;">:</td><td><div>True</div></td></tr><tr><td style="font-weight:bold;vertical-align:top;">local_hosts</td><td style="vertical-align:top;">:</td><td><div><table><tr><td><div>fe80::11f1:c1de:1399:65a2%4</div></td></tr><tr><td><div>fe80::7942:f2e6:65bd:45f1%14</div></td></tr><tr><td><div>DESKTOP-RRU69RV</div></td></tr><tr><td><div>::ffff:127.0.0.1</div></td></tr><tr><td><div>::1</div></td></tr><tr><td><div>10.53.3.8</div></td></tr><tr><td><div>DESKTOP-RRU69RV.uci.cu</div></td></tr><tr><td><div>127.0.0.1</div></td></tr><tr><td><div>192.168.189.1</div></td></tr></table></div></td></tr><tr><td style="font-weight:bold;vertical-align:top;">web2py_version</td><td style="vertical-align:top;">:</td><td><div>2.9.12-stable+timestamp.2015.01.17.06.11.03</div></td></tr></table></div></td></tr><tr><td style="font-weight:bold;vertical-align:top;">is_https</td><td style="vertical-align:top;">:</td><td><div>False</div></td></tr><tr><td style="font-weight:bold;vertical-align:top;">is_local</td><td style="vertical-align:top;">:</td><td><div>True</div></td></tr><tr><td style="font-weight:bold;vertical-align:top;">is_restful</td><td style="vertical-align:top;">:</td><td><div>False</div></td></tr><tr><td style="font-weight:bold;vertical-align:top;">is_sheduler</td><td style="vertical-align:top;">:</td><td><div>None</div></td></tr><tr><td style="font-weight:bold;vertical-align:top;">is_shell</td><td style="vertical-align:top;">:</td><td><div>None</div></td></tr><tr><td style="font-weight:bold;vertical-align:top;">now</td><td style="vertical-align:top;">:</td><td><div>datetime.datetime(2016, 5, 6, 15, 39, 45, 415000)</div></td></tr><tr><td style="font-weight:bold;vertical-align:top;">raw_args</td><td style="vertical-align:top;">:</td><td><div>edit/evaluaciones/180</div></td></tr><tr><td style="font-weight:bold;vertical-align:top;">raw_extension</td><td style="vertical-align:top;">:</td><td><div>None</div></td></tr><tr><td style="font-weight:bold;vertical-align:top;">url</td><td style="vertical-align:top;">:</td><td><div>/seeda/experto/evaluar/edit/evaluaciones/180</div></td></tr><tr><td style="font-weight:bold;vertical-align:top;">utcnow</td><td style="vertical-align:top;">:</td><td><div>datetime.datetime(2016, 5, 6, 17, 39, 45, 415000)</div></td></tr><tr><td style="font-weight:bold;vertical-align:top;">uuid</td><td style="vertical-align:top;">:</td><td><div>seeda/127.0.0.1.2016-05-06.15-39-45.d163b70f-85e5-4d47-b117-e092a4b060aa</div></td></tr><tr><td style="font-weight:bold;vertical-align:top;">wsgi</td><td style="vertical-align:top;">:</td><td><div>&lt;gluon.main.LazyWSGI object at 0x08D0A270&gt;</div></td></tr></table></div>'
tRp58
sS'frames'
p59
(lp60
(dp61
S'file'
p62
S'D:\\web2py\\gluon\\restricted.py'
p63
sS'dump'
p64
(dp65
S'environment'
p66
S"{'A': <class 'gluon.html.A'>, 'ANY_OF': <class 'gluon.validators.ANY_OF'>, 'ASSIGNJS': <function ASSIGNJS>, 'Auth': <class 'gluon.tools.Auth'>, 'B': <class 'gluon.html.B'>, 'BEAUTIFY': <class 'gluon.html.BEAUTIFY'>, 'BODY': <class 'gluon.html.BODY'>, 'BR': <class 'gluon.html.BR'>, 'BUTTON': <class 'gluon.html.BUTTON'>, 'CAT': <class 'gluon.html.CAT'>, ...}"
p67
sS'ccode'
p68
S'<code object <module> at 0919FC38, file "D:\\web2...plications\\seeda\\controllers/experto.py", line 2>'
p69
ssS'lnum'
p70
I224
sS'lines'
p71
(dp72
I224
S'        exec ccode in environment'
p73
sI225
S'    except HTTP:'
p74
sI226
S'        raise'
p75
sI227
S'    except RestrictedError:'
p76
sI228
S'        # do not encapsulate (obfuscate) the original RestrictedError'
p77
sI219
S'    try:'
p78
sI220
S'        if isinstance(code, types.CodeType):'
p79
sI221
S'            ccode = code'
p80
sI222
S'        else:'
p81
sI223
S'            ccode = compile2(code, layer)'
p82
ssS'call'
p83
S'(code="# coding=utf-8\\n__author__ = \'Miguel Antonio\'\\n\\nfr...return\\n\\nresponse._vars=response._caller(evaluar)\\n", environment={\'A\': <class \'gluon.html.A\'>, \'ANY_OF\': <class \'gluon.validators.ANY_OF\'>, \'ASSIGNJS\': <function ASSIGNJS>, \'Auth\': <class \'gluon.tools.Auth\'>, \'B\': <class \'gluon.html.B\'>, \'BEAUTIFY\': <class \'gluon.html.BEAUTIFY\'>, \'BODY\': <class \'gluon.html.BODY\'>, \'BR\': <class \'gluon.html.BR\'>, \'BUTTON\': <class \'gluon.html.BUTTON\'>, \'CAT\': <class \'gluon.html.CAT\'>, ...}, layer=r\'D:\\web2py\\applications\\seeda\\controllers/experto.py\')'
p84
sS'func'
p85
S'restricted'
p86
sa(dp87
g62
S'D:\\web2py\\applications\\seeda\\controllers\\experto.py'
p88
sg64
(dp89
sg70
I328
sg71
(dp90
I320
S'        elif clasificacion == 3:'
p91
sI321
S'            db((db.aspectossolicitud.id_solicitudes == id_solicitud) & ('
p92
sI322
S"                db.aspectossolicitud.id == aspecto)).update(evaluacionfinal='Mal')"
p93
sI323
S'        elif clasificacion == 4:'
p94
sI324
S'            db((db.aspectossolicitud.id_solicitudes == id_solicitud) & ('
p95
sI325
S"                db.aspectossolicitud.id == aspecto)).update(evaluacionfinal='Muy Mal')"
p96
sI326
S'    return'
p97
sI317
S'        elif clasificacion == 2:'
p98
sI318
S'            db((db.aspectossolicitud.id_solicitudes == id_solicitud) & ('
p99
sI319
S"                db.aspectossolicitud.id == aspecto)).update(evaluacionfinal='Regular')"
p100
ssg83
S'()'
p101
sg85
S'<module>'
p102
sa(dp103
g62
S'D:\\web2py\\gluon\\globals.py'
p104
sg64
(dp105
S'self'
p106
S'undefined'
p107
sS'f'
S'<function evaluar>'
p108
ssg70
I393
sg71
(dp109
I388
S"        self.flash = ''            # used by the default view layout"
p110
sI389
S'        self.meta = Storage()      # used by web2py_ajax.html'
p111
sI390
S'        self.menu = []             # used by the default view layout'
p112
sI391
S'        self.files = []            # used by web2py_ajax.html'
p113
sI392
S'        self._vars = None'
p114
sI393
S'        self._caller = lambda f: f()'
p115
sI394
S'        self._view_environment = None'
p116
sI395
S'        self._custom_commit = None'
p117
sI396
S'        self._custom_rollback = None'
p118
sI397
S"        self.generic_patterns = ['*']"
p119
ssg83
S'(f=<function evaluar>)'
p120
sg85
S'<lambda>'
p121
sa(dp122
g62
S'D:\\web2py\\gluon\\tools.py'
p123
sg64
(dp124
S'action'
p125
S'<function evaluar>'
p126
sS'a'
S'()'
p127
sS'b'
g45
ssg70
I3444
sg71
(dp128
I3439
S'                    flag = condition'
p129
sI3440
S'                if not flag:'
p130
sI3441
S'                    current.session.flash = self.messages.access_denied'
p131
sI3442
S'                    return call_or_redirect('
p132
sI3443
S'                        self.settings.on_failed_authorization)'
p133
sI3444
S'                return action(*a, **b)'
p134
sI3445
S'            f.__doc__ = action.__doc__'
p135
sI3446
S'            f.__name__ = action.__name__'
p136
sI3447
S'            f.__dict__.update(action.__dict__)'
p137
sI3448
S'            return f'
p138
ssg83
S'(*a=(), **b={})'
p139
sg85
S'f'
sa(dp140
g62
S'D:\\web2py\\applications\\seeda\\controllers\\experto.py'
p141
sg64
(dp142
S'global aux2'
p143
S'<function aux2>'
p144
sS'global request'
p145
S"<Storage {'_vars': None, 'function': 'evaluar', ..., 'folder': 'D:\\\\web2py\\\\applications\\\\seeda\\\\'}>"
p146
sS'request.args'
p147
S"['edit', 'evaluaciones', '180']"
p148
ssg70
I30
sg71
(dp149
I32
S'    return dict(form=form_evaluar)'
p150
sI33
S''
sI34
S''
sI25
S'    form_evaluar = SQLFORM.grid(consulta, deletable=False, create=False, paginate=10, details=False,'
p151
sI26
S'                                field_id=db.evaluaciones.id)'
p152
sI27
S"    if request.args(0) == 'edit':"
p153
sI28
S'        formulario = form_evaluar.components[1]'
p154
sI29
S'        if formulario.process().accepted:'
p155
sI30
S'            aux2(request.args(2))'
p156
sI31
S"            redirect(URL(c='experto', f='evaluar'))"
p157
ssg83
S'()'
p158
sg85
S'evaluar'
p159
sa(dp160
g62
S'D:\\web2py\\applications\\seeda\\controllers\\experto.py'
p161
sg64
(dp162
S'id_solicitud'
p163
S'1L'
p164
sS'global delphi'
p165
S'<function delphi>'
p166
ssg70
I85
sg71
(dp167
I80
S'    print(id_solicitud)'
p168
sI81
S"    ronda = consulta['ronda']"
p169
sI82
S'    contar = db((db.evaluaciones.id_solicitudes == id_solicitud) & (db.evaluaciones.evaluacion == "Sin evaluaci\xc3\xb3n") & ('
p170
sI83
S'        db.evaluaciones.ronda == 1)).count()'
p171
sI84
S'    if ((contar == 0) & (ronda == "1")):'
p172
sI85
S'        delphi(id_solicitud)'
p173
sI86
S'        c = (db.solicitudes.id == id_solicitud)'
p174
sI87
S'        miset = db(c)'
p175
sI88
S'        miset.update(estado="En ronda 2")'
p176
sI89
S'        c2 = db(db.evaluaciones.id_solicitudes == id_solicitud).update(ronda=2)'
p177
ssg83
S"(id_evaluacion='180')"
p178
sg85
S'aux2'
p179
sa(dp180
g62
S'D:\\web2py\\applications\\seeda\\controllers\\experto.py'
p181
sg64
(dp182
S'y'
S'1'
sS'mfinal'
p183
S'[[3.09], [-3.09, 3.09], [3.09], [-3.09, 3.09], [3.09], [-3.09, 3.09], [-3.09, -3.09, 3.09], [3.09], [3.09], [3.09], [-3.09, -3.09, 3.09], [3.09], [-3.09, 3.09], [3.09], [3.09], [3.09], [3.09], [-3.09, 3.09]]'
p184
sS'z'
S'3.09'
p185
sS'x'
S'0'
ssg70
I218
sg71
(dp186
I213
S'    x = 0'
p187
sI214
S'    while x < contar_aspectos:'
p188
sI215
S'        y = 0'
p189
sI216
S'        z = 0'
p190
sI217
S'        while y < 4:'
p191
sI218
S'            z = z + mfinal[x][y]'
p192
sI219
S'            y += 1'
p193
sI220
S'        sumatoriah[x] = z'
p194
sI221
S'        x += 1'
p195
sI222
S''
ssg83
S'(id_solicitud=1L)'
p196
sg85
S'delphi'
p197
sasS'pyver'
p198
S'Python 2.7.2: D:\\Python2.7\\python.exe (prefix: D:\\Python2.7)'
p199
sS'session'
p200
g57
(S'st\t\x00\x00<div><table><tr><td style="font-weight:bold;vertical-align:top;">auth</td><td style="vertical-align:top;">:</td><td><div><table><tr><td style="font-weight:bold;vertical-align:top;">expiration</td><td style="vertical-align:top;">:</td><td><div>3000</div></td></tr><tr><td style="font-weight:bold;vertical-align:top;">hmac_key</td><td style="vertical-align:top;">:</td><td><div>1f099f87-45cd-444c-a1b8-5c3243101652</div></td></tr><tr><td style="font-weight:bold;vertical-align:top;">last_visit</td><td style="vertical-align:top;">:</td><td><div>datetime.datetime(2016, 5, 6, 15, 39, 42, 908000)</div></td></tr><tr><td style="font-weight:bold;vertical-align:top;">remember_me</td><td style="vertical-align:top;">:</td><td><div>False</div></td></tr><tr><td style="font-weight:bold;vertical-align:top;">user</td><td style="vertical-align:top;">:</td><td><div><table><tr><td style="font-weight:bold;vertical-align:top;">email</td><td style="vertical-align:top;">:</td><td><div>deka@guru.exp</div></td></tr><tr><td style="font-weight:bold;vertical-align:top;">first_name</td><td style="vertical-align:top;">:</td><td><div>Deka</div></td></tr><tr><td style="font-weight:bold;vertical-align:top;">id</td><td style="vertical-align:top;">:</td><td><div>12L</div></td></tr><tr><td style="font-weight:bold;vertical-align:top;">last_name</td><td style="vertical-align:top;">:</td><td><div>Ekspertisto</div></td></tr><tr><td style="font-weight:bold;vertical-align:top;">registration_id</td><td style="vertical-align:top;">:</td><td><div></div></td></tr><tr><td style="font-weight:bold;vertical-align:top;">registration_key</td><td style="vertical-align:top;">:</td><td><div></div></td></tr><tr><td style="font-weight:bold;vertical-align:top;">reset_password_key</td><td style="vertical-align:top;">:</td><td><div></div></td></tr><tr><td style="font-weight:bold;vertical-align:top;">username</td><td style="vertical-align:top;">:</td><td><div>experto10</div></td></tr></table></div></td></tr><tr><td style="font-weight:bold;vertical-align:top;">user_groups</td><td style="vertical-align:top;">:</td><td><div><table><tr><td style="font-weight:bold;vertical-align:top;">2</td><td style="vertical-align:top;">:</td><td><div>Experto</div></td></tr></table></div></td></tr></table></div></td></tr><tr><td style="font-weight:bold;vertical-align:top;">flash</td><td style="vertical-align:top;">:</td><td><div>None</div></td></tr></table></div>'
tRp201
sS'etype'
p202
S"<type 'exceptions.IndexError'>"
p203
sS'date'
p204
S'Fri May 06 15:39:45 2016'
p205
sS'response'
p206
g57
(S's\\)\x00\x00<div><table><tr><td style="font-weight:bold;vertical-align:top;">body</td><td style="vertical-align:top;">:</td><td><div>&lt;cStringIO.StringO object at 0x0972B080&gt;</div></td></tr><tr><td style="font-weight:bold;vertical-align:top;">cookies</td><td style="vertical-align:top;">:</td><td><div><table><tr><td style="font-weight:bold;vertical-align:top;">session_id_seeda</td><td style="vertical-align:top;">:</td><td><div>127.0.0.1-5ef7e932-8537-4999-b8bb-db4cd438a095<table><tr><td style="font-weight:bold;vertical-align:top;">comment</td><td style="vertical-align:top;">:</td><td><div></div></td></tr><tr><td style="font-weight:bold;vertical-align:top;">domain</td><td style="vertical-align:top;">:</td><td><div></div></td></tr><tr><td style="font-weight:bold;vertical-align:top;">expires</td><td style="vertical-align:top;">:</td><td><div></div></td></tr><tr><td style="font-weight:bold;vertical-align:top;">httponly</td><td style="vertical-align:top;">:</td><td><div></div></td></tr><tr><td style="font-weight:bold;vertical-align:top;">max-age</td><td style="vertical-align:top;">:</td><td><div></div></td></tr><tr><td style="font-weight:bold;vertical-align:top;">path</td><td style="vertical-align:top;">:</td><td><div>/</div></td></tr><tr><td style="font-weight:bold;vertical-align:top;">secure</td><td style="vertical-align:top;">:</td><td><div></div></td></tr><tr><td style="font-weight:bold;vertical-align:top;">version</td><td style="vertical-align:top;">:</td><td><div></div></td></tr></table></div></td></tr></table></div></td></tr><tr><td style="font-weight:bold;vertical-align:top;">delimiters</td><td style="vertical-align:top;">:</td><td><div><table><tr><td><div>{{</div></td></tr><tr><td><div>}}</div></td></tr></table></div></td></tr><tr><td style="font-weight:bold;vertical-align:top;">files</td><td style="vertical-align:top;">:</td><td><div><table></table></div></td></tr><tr><td style="font-weight:bold;vertical-align:top;">flash</td><td style="vertical-align:top;">:</td><td><div>Success!</div></td></tr><tr><td style="font-weight:bold;vertical-align:top;">form_label_separator</td><td style="vertical-align:top;">:</td><td><div>: </div></td></tr><tr><td style="font-weight:bold;vertical-align:top;">formstyle</td><td style="vertical-align:top;">:</td><td><div>table3cols</div></td></tr><tr><td style="font-weight:bold;vertical-align:top;">generic_patterns</td><td style="vertical-align:top;">:</td><td><div><table><tr><td><div>*</div></td></tr></table></div></td></tr><tr><td style="font-weight:bold;vertical-align:top;">google_analytics_id</td><td style="vertical-align:top;">:</td><td><div>None</div></td></tr><tr><td style="font-weight:bold;vertical-align:top;">headers</td><td style="vertical-align:top;">:</td><td><div><table><tr><td style="font-weight:bold;vertical-align:top;">X-Powered-By</td><td style="vertical-align:top;">:</td><td><div>web2py</div></td></tr></table></div></td></tr><tr><td style="font-weight:bold;vertical-align:top;">logo</td><td style="vertical-align:top;">:</td><td><div><a class="brand" href="http://10.53.3.56:8000/seeda/default/index"><b>SEEDA</b></a></div></td></tr><tr><td style="font-weight:bold;vertical-align:top;">menu</td><td style="vertical-align:top;">:</td><td><div><table><tr><td><div><table><tr><td><div>Menu</div></td></tr><tr><td><div>False</div></td></tr><tr><td><div>/seeda/experto/evaluar</div></td></tr><tr><td><div><table><tr><td><div><table><tr><td><div>Home</div></td></tr><tr><td><div>False</div></td></tr><tr><td><div>/seeda/default/index</div></td></tr></table></div></td></tr><tr><td><div><table><tr><td><div>Up strategy</div></td></tr><tr><td><div>False</div></td></tr><tr><td><div>/seeda/solicitudes/nuevasolicitud</div></td></tr></table></div></td></tr><tr><td><div><table><tr><td><div>My strategies</div></td></tr><tr><td><div>False</div></td></tr><tr><td><div>/seeda/solicitudes/missolicitudes</div></td></tr></table></div></td></tr><tr><td><div><table><tr><td><div>Published strategies</div></td></tr><tr><td><div>False</div></td></tr><tr><td><div>/seeda/solicitudes/solicitudespublicas</div></td></tr></table></div></td></tr><tr><td><div><table><tr><td><div>Help</div></td></tr><tr><td><div>False</div></td></tr><tr><td><div>/seeda/default/ayuda</div></td></tr></table></div></td></tr></table></div></td></tr></table></div></td></tr><tr><td><div><table><tr><td><div>Tables</div></td></tr><tr><td><div>False</div></td></tr><tr><td><div>/seeda/experto/evaluar</div></td></tr><tr><td><div><table><tr><td><div><table><tr><td><div>Principal products</div></td></tr><tr><td><div>False</div></td></tr><tr><td><div>/seeda/default/tabla1</div></td></tr></table></div></td></tr><tr><td><div><table><tr><td><div>Imported fertilizers</div></td></tr><tr><td><div>False</div></td></tr><tr><td><div>/seeda/default/tabla2</div></td></tr></table></div></td></tr><tr><td><div><table><tr><td><div>Exported fertilizers</div></td></tr><tr><td><div>False</div></td></tr><tr><td><div>/seeda/default/tabla3</div></td></tr></table></div></td></tr><tr><td><div><table><tr><td><div>Imported insecticides</div></td></tr><tr><td><div>False</div></td></tr><tr><td><div>/seeda/default/tabla4</div></td></tr></table></div></td></tr><tr><td><div><table><tr><td><div>Exported insecticides</div></td></tr><tr><td><div>False</div></td></tr><tr><td><div>/seeda/default/tabla5</div></td></tr></table></div></td></tr><tr><td><div><table><tr><td><div>Imported machinaries</div></td></tr><tr><td><div>False</div></td></tr><tr><td><div>/seeda/default/tabla6</div></td></tr></table></div></td></tr><tr><td><div><table><tr><td><div>Exported machinaries</div></td></tr><tr><td><div>False</div></td></tr><tr><td><div>/seeda/default/tabla7</div></td></tr></table></div></td></tr></table></div></td></tr></table></div></td></tr></table></div></td></tr><tr><td style="font-weight:bold;vertical-align:top;">menuespecial</td><td style="vertical-align:top;">:</td><td><div><table><tr><td><div><table><tr><td><div>Experts</div></td></tr><tr><td><div>False</div></td></tr><tr><td><div>None</div></td></tr><tr><td><div><table><tr><td><div><table><tr><td><div>Evaluar en ronda 1</div></td></tr><tr><td><div>False</div></td></tr><tr><td><div>/seeda/experto/evaluar</div></td></tr></table></div></td></tr><tr><td><div><table><tr><td><div>Evaluar en ronda 2</div></td></tr><tr><td><div>False</div></td></tr><tr><td><div>/seeda/experto/evaluar2</div></td></tr></table></div></td></tr><tr><td><div><table><tr><td><div>My evaluations</div></td></tr><tr><td><div>False</div></td></tr><tr><td><div>/seeda/experto/mis_evaluaciones</div></td></tr></table></div></td></tr></table></div></td></tr></table></div></td></tr></table></div></td></tr><tr><td style="font-weight:bold;vertical-align:top;">meta</td><td style="vertical-align:top;">:</td><td><div><table><tr><td style="font-weight:bold;vertical-align:top;">author</td><td style="vertical-align:top;">:</td><td><div>Miguel Antonio Conde</div></td></tr><tr><td style="font-weight:bold;vertical-align:top;">generator</td><td style="vertical-align:top;">:</td><td><div>Web2py Web Framework</div></td></tr><tr><td style="font-weight:bold;vertical-align:top;">keywords</td><td style="vertical-align:top;">:</td><td><div>web2py, python, framework, UCI, Delphi,Agricultura</div></td></tr></table></div></td></tr><tr><td style="font-weight:bold;vertical-align:top;">models_to_run</td><td style="vertical-align:top;">:</td><td><div><table><tr><td><div>^\\w+\\.py$</div></td></tr><tr><td><div>^experto/\\w+\\.py$</div></td></tr><tr><td><div>^experto/evaluar/\\w+\\.py$</div></td></tr></table></div></td></tr><tr><td style="font-weight:bold;vertical-align:top;">postprocessing</td><td style="vertical-align:top;">:</td><td><div><table></table></div></td></tr><tr><td style="font-weight:bold;vertical-align:top;">session_client</td><td style="vertical-align:top;">:</td><td><div>127.0.0.1</div></td></tr><tr><td style="font-weight:bold;vertical-align:top;">session_cookie_compression_level</td><td style="vertical-align:top;">:</td><td><div>None</div></td></tr><tr><td style="font-weight:bold;vertical-align:top;">session_cookie_expires</td><td style="vertical-align:top;">:</td><td><div>None</div></td></tr><tr><td style="font-weight:bold;vertical-align:top;">session_cookie_key</td><td style="vertical-align:top;">:</td><td><div>None</div></td></tr><tr><td style="font-weight:bold;vertical-align:top;">session_data_name</td><td style="vertical-align:top;">:</td><td><div>session_data_seeda</div></td></tr><tr><td style="font-weight:bold;vertical-align:top;">session_file</td><td style="vertical-align:top;">:</td><td><div>&lt;open file &#x27;D:\\web2py\\applications\\seeda\\sessions\\0e1\\1c3\\127.0.0.1-5ef7e932-8537-4999-b8bb-db4cd438a095&#x27;, mode &#x27;rb+&#x27; at 0x08965C80&gt;</div></td></tr><tr><td style="font-weight:bold;vertical-align:top;">session_filename</td><td style="vertical-align:top;">:</td><td><div>D:\\web2py\\applications\\seeda\\sessions\\127.0.0.1-5ef7e932-8537-4999-b8bb-db4cd438a095</div></td></tr><tr><td style="font-weight:bold;vertical-align:top;">session_hash</td><td style="vertical-align:top;">:</td><td><div>fc02337f02f51dfc8c23e5f6b228876f</div></td></tr><tr><td style="font-weight:bold;vertical-align:top;">session_id</td><td style="vertical-align:top;">:</td><td><div>127.0.0.1-5ef7e932-8537-4999-b8bb-db4cd438a095</div></td></tr><tr><td style="font-weight:bold;vertical-align:top;">session_id_name</td><td style="vertical-align:top;">:</td><td><div>session_id_seeda</div></td></tr><tr><td style="font-weight:bold;vertical-align:top;">session_locked</td><td style="vertical-align:top;">:</td><td><div>True</div></td></tr><tr><td style="font-weight:bold;vertical-align:top;">session_masterapp</td><td style="vertical-align:top;">:</td><td><div>seeda</div></td></tr><tr><td style="font-weight:bold;vertical-align:top;">session_new</td><td style="vertical-align:top;">:</td><td><div>False</div></td></tr><tr><td style="font-weight:bold;vertical-align:top;">session_storage_type</td><td style="vertical-align:top;">:</td><td><div>file</div></td></tr><tr><td style="font-weight:bold;vertical-align:top;">status</td><td style="vertical-align:top;">:</td><td><div>200</div></td></tr><tr><td style="font-weight:bold;vertical-align:top;">subtitle</td><td style="vertical-align:top;">:</td><td><div></div></td></tr><tr><td style="font-weight:bold;vertical-align:top;">title</td><td style="vertical-align:top;">:</td><td><div>Seeda</div></td></tr><tr><td style="font-weight:bold;vertical-align:top;">view</td><td style="vertical-align:top;">:</td><td><div>experto/evaluar.html</div></td></tr></table></div>'
tRp207
sS'locals'
p208
(dp209
S'mfa'
p210
S'[[2, 3, 4, 6, 10], [0, 3, 5, 7, 10], [2, 4, 8, 9, 10], [0, 2, 3, 6, 10], [2, 4, 6, 9, 10], [0, 1, 2, 8, 10], [0, 0, 3, 6, 10], [1, 4, 6, 9, 10], [1, 2, 6, 8, 10], [2, 3, 3, 7, 10], [0, 0, 2, 5, 10], [1, 2, 4, 8, 10], [0, 2, 3, 7, 10], [1, 2, 4, 8, 10], [2, 4, 6, 8, 10], [1, 5, 5, 7, 10], [3, 4, 5, 8, 10], [0, 1, 2, 5, 10]]'
p211
sS'lista_aux'
p212
S'[]'
p213
sS'datos'
p214
S'<Rows (1)>'
p215
sS'cant_aspecto'
p216
S"<Row {'id_aspectossolicitud': 18L}>"
p217
sS'contar_evaluaciones'
p218
S'180'
p219
sS'evaluacion'
p220
S"<Row {'evaluacion': 'Bien', 'id_solicitudes': 1L...pectossolicitud': 18L, 'delphi': 'Sin ejecutar'}>"
p221
sS'id_solicitud'
p222
S'1L'
p223
sS'mfinal'
p224
S'[[3.09], [-3.09, 3.09], [3.09], [-3.09, 3.09], [3.09], [-3.09, 3.09], [-3.09, -3.09, 3.09], [3.09], [3.09], [3.09], [-3.09, -3.09, 3.09], [3.09], [-3.09, 3.09], [3.09], [3.09], [3.09], [3.09], [-3.09, 3.09]]'
p225
sS'var4'
p226
S'4'
sS'evaluaciones'
p227
S'<Rows (180)>'
p228
sS'var1'
p229
S'5'
sS'var0'
p230
S'2'
sS'var3'
p231
S'2'
sS'var2'
p232
S'5'
sS'contar_aspectos'
p233
S'18'
p234
sS'sumatoriah'
p235
S'[0, 0, 0, 0, 0, 0, 0, 0, 0, 0, 0, 0, 0, 0, 0, 0, 0, 0]'
p236
sS'dato'
p237
S"<Row {'idnea': 3.09}>"
p238
sS'c'
S'18'
p239
sS'mf'
p240
S'[[2, 1, 1, 2, 4], [0, 3, 2, 2, 3], [2, 2, 4, 1, 1], [0, 2, 1, 3, 4], [2, 2, 2, 3, 1], [0, 1, 1, 6, 2], [0, 0, 3, 3, 4], [1, 3, 2, 3, 1], [1, 1, 4, 2, 2], [2, 1, 0, 4, 3], [0, 0, 2, 3, 5], [1, 1, 2, 4, 2], [0, 2, 1, 4, 3], [1, 1, 2, 4, 2], [2, 2, 2, 2, 2], [1, 4, 0, 2, 3], [3, 1, 1, 3, 2], [0, 1, 1, 3, 5]]'
p241
sS'conteo_de_evaluaciones'
p242
S'[0, 0, 0, 0, 0]'
p243
sS'mfar'
p244
S'[[0.2, 0.3, 0.4, 0.6, 1.0], [0.0, 0.3, 0.5, 0.7, 1.0], [0.2, 0.4, 0.8, 0.9, 1.0], [0.0, 0.2, 0.3, 0.6, 1.0], [0.2, 0.4, 0.6, 0.9, 1.0], [0.0, 0.1, 0.2, 0.8, 1.0], [0.0, 0.0, 0.3, 0.6, 1.0], [0.1, 0.4, 0.6, 0.9, 1.0], [0.1, 0.2, 0.6, 0.8, 1.0], [0.2, 0.3, 0.3, 0.7, 1.0], [0.0, 0.0, 0.2, 0.5, 1.0], [0.1, 0.2, 0.4, 0.8, 1.0], [0.0, 0.2, 0.3, 0.7, 1.0], [0.1, 0.2, 0.4, 0.8, 1.0], [0.2, 0.4, 0.6, 0.8, 1.0], [0.1, 0.5, 0.5, 0.7, 1.0], [0.3, 0.4, 0.5, 0.8, 1.0], [0.0, 0.1, 0.2, 0.5, 1.0]]'
p245
sS'lista_d_evaluaciones'
p246
S"['Muy Mal', 'Muy Bien', 'Mal', 'Muy Bien', 'Muy Mal', 'Bien', 'Bien', 'Muy Bien', 'Regular', 'Muy Bien', 'Mal', 'Regular', 'Muy Bien', 'Bien', 'Mal', 'Muy Bien', 'Muy Bien', 'Regular', 'Bien', 'Mal', ...]"
p247
sS'w'
S'100'
p248
sS'y'
S'1'
sS'x'
S'0'
sS'cant_aspectos'
p249
S'<Rows (18)>'
p250
sS'z'
S'3.09'
p251
sssS'traceback'
p252
S'Traceback (most recent call last):\n  File "D:\\web2py\\gluon\\restricted.py", line 224, in restricted\n    exec ccode in environment\n  File "D:\\web2py\\applications\\seeda\\controllers/experto.py", line 328, in <module>\n  File "D:\\web2py\\gluon\\globals.py", line 393, in <lambda>\n    self._caller = lambda f: f()\n  File "D:\\web2py\\gluon\\tools.py", line 3444, in f\n    return action(*a, **b)\n  File "D:\\web2py\\applications\\seeda\\controllers/experto.py", line 30, in evaluar\n    aux2(request.args(2))\n  File "D:\\web2py\\applications\\seeda\\controllers/experto.py", line 85, in aux2\n    delphi(id_solicitud)\n  File "D:\\web2py\\applications\\seeda\\controllers/experto.py", line 218, in delphi\n    z = z + mfinal[x][y]\nIndexError: list index out of range\n'
p253
s.