(dp1
S'output'
p2
S"<type 'exceptions.SyntaxError'> Field: unknown field type: long for kilogramos"
p3
sS'layer'
p4
S'/media/miguel/WORK/web2py/applications/seunova/models/db_tables.py'
p5
sS'code'
p6
S'# coding=utf-8\r\n\r\n__author__ = \'Miguel Antonio\'\r\n\r\nimport datetime\r\n\r\n\r\n#Definici\xc3\xb3n de las tablas de la aplicaci\xc3\xb3n con sus funciones disparadaras (Triggers) y restricciones\r\n#-------------------------------------------------------------------------------------------------------#\r\n#Tabla Aspectos\r\ndb.define_table(\'aspectos\',\r\n                Field(\'aspecto\', \'string\', required=True, unique=True, label=T(\'Aspect\')),\r\n                format=\'%(aspecto)s\')\r\n#Triggers\r\n\r\n#Restricciones\r\ndb.aspectos.id.readable = False\r\ndb.aspectos.id.writable = False\r\n\r\n#-------------------------------------------------------------------------------------------------------#\r\n#Tabla Solicitudes\r\ndb.define_table(\'solicitudes\',\r\n                Field(\'proyecto\', \'string\', required=True, label=T(\'Proyect name\'), requires=IS_NOT_EMPTY()),\r\n                Field(\'archivos\', \'upload\', required=True, label=T(\'File\'), requires=IS_NOT_EMPTY(),\r\n                      autodelete=True, uploadseparate=True),\r\n                Field(\'estado\', default="Pendiente",\r\n                      requires=IS_IN_SET([\'Pendiente\', \'Rechazada\', \'Cancelada\', \'Evalu\xc3\xa1ndose\',\r\n                                          \'Evaluada\']), label=T(\'State\')),\r\n                Field(\'fecha\', \'datetime\', default=datetime.datetime.now(), label=T(\'Create date\')),\r\n                Field(\'publico\', required=True, label=T(\'Public\'),\r\n                      requires=IS_IN_SET([\'Si\', \'No\']), default=\'Si\'),\r\n                Field(\'observaciones\', \'text\', default=\'Sin observaciones\', label=T(\'Observations\')),\r\n                Field(\'id_usuario\', \'reference auth_user\', required=True, default=auth.user_id, label=T(\'User\')),\r\n                format=\'%(proyecto)s\')\r\n#Triggers\r\ndef solicitudes_before_insert(f):\r\n    consulta = db(db.solicitudes.proyecto == f[\'proyecto\']).count()\r\n    if consulta > 0:\r\n        return True\r\n\r\ndef solicitudes_after_update(s, f):\r\n    if f[\'estado\'] == \'Evalu\xc3\xa1ndose\':\r\n        conteo = db(db.auth_membership.group_id == 2).count()\r\n        if conteo > 6:\r\n            expertos = db(db.auth_membership.group_id == 2).select(db.auth_membership.user_id)\r\n            solicitud = db.solicitudes(f[\'id\'])\r\n            for experto in expertos:\r\n                db.expertosasociados.insert(id_usuario=experto.user_id, id_solicitudes=solicitud.id)\r\n            expertos = db(db.expertosasociados.id_solicitudes == solicitud.id).select(\r\n            db.expertosasociados.ALL)\r\n            aspectos = db(db.aspectossolicitud.id_solicitudes == solicitud.id).select(db.aspectossolicitud.ALL)\r\n            for aspecto in aspectos:\r\n                for experto in expertos:\r\n                    db.evaluaciones.insert(id_solicitudes=solicitud.id, id_aspectossolicitud=aspecto.id,\r\n                                       id_experto=experto.id)\r\n        else:\r\n            c = (db.solicitudes.id == f[\'id\'])\r\n            miset = db(c)\r\n            miset.update(estado="Cancelada", observaciones=\'La cantidad de expertos existentes no es suficiente para evaluar esta solicitud\')\r\n\r\n#Restricciones\r\ndb.solicitudes.fecha.writable = False\r\ndb.solicitudes.publico.requires = IS_IN_SET((\'Si\', \'No\'))\r\ndb.solicitudes.observaciones.writable = False\r\ndb.solicitudes.id_usuario.writable = False\r\ndb.solicitudes.id.readable = False\r\ndb.solicitudes.id.writable = False\r\ndb.solicitudes.estado.writable = False\r\ndb.solicitudes.publico.readable = False\r\ndb.solicitudes._after_update.append(solicitudes_after_update)\r\ndb.solicitudes._before_insert.append(solicitudes_before_insert)\r\n#-------------------------------------------------------------------------------------------------------#\r\n\r\n#Tabla Aspectos-solicitudes\r\ndb.define_table(\'aspectossolicitud\',\r\n                Field(\'id_solicitudes\', \'reference solicitudes\', required=True,\r\n                      label=T(\'Proyect name\')),\r\n                Field(\'id_aspecto\', \'reference aspectos\', label=T(\'Aspect to evaluate\'), required=True),\r\n                Field(\'evaluacionfinal\', default=\'\',\r\n                      requires=IS_IN_SET([\'Muy Mal\', \'Mal\', \'Regular\', \'Bien\', \'Muy Bien\']),\r\n                      label="Evaluaci\xc3\xb3n Final"),\r\n                format=lambda row: row.id_aspecto.aspecto)\r\n#Triggers\r\n# def aspectossolicitud_before_insert(f):\r\n#     print(f)\r\n#     solicitud = f[\'id_solicitudes\']\r\n#     aspecto = f[\'id_aspecto\']\r\n#     conteo = db(\r\n#         (db.aspectossolicitud.id_solicitudes == solicitud) & (db.aspectossolicitud.id_aspecto == aspecto)).count()\r\n#     print(conteo)\r\n#     if conteo > 0:\r\n#         return True\r\n\r\n#Restricciones\r\ndb.aspectossolicitud.id_solicitudes.requires = IS_IN_DB(db, db.solicitudes, \'%(proyecto)s\')\r\ndb.aspectossolicitud.id_aspecto.requires = IS_IN_DB(db, db.aspectos, \'%(aspecto)s\')\r\ndb.aspectossolicitud.id.writable = False\r\ndb.aspectossolicitud.id.readable = False\r\n# db.aspectossolicitud._before_insert.append(aspectossolicitud_before_insert)\r\n#-------------------------------------------------------------------------------------------------------#\r\n\r\n#Tabla expertosasociados\r\ndb.define_table(\'expertosasociados\',\r\n                Field(\'id_solicitudes\', \'reference solicitudes\', required=True, label=T(\'Proyect name\')),\r\n                Field(\'id_usuario\', \'reference auth_user\', required=True, default=auth.user_id, label=T(\'User\')),\r\n                format=\'%(id_usuario)s\')\r\n#Triggers\r\n\r\n#Restricciones\r\ndb.expertosasociados.id_solicitudes.requires = IS_IN_DB(db, db.solicitudes, \'%(proyecto)s\')\r\ndb.expertosasociados.id.readable = False\r\ndb.expertosasociados.id.writable = False\r\n#-------------------------------------------------------------------------------------------------------#\r\n\r\n#Tabla Evaluaciones\r\ndb.define_table(\'evaluaciones\',\r\n                Field(\'id_solicitudes\', \'reference solicitudes\', required=True, label=T(\'Proyect name\'),\r\n                      writable=0),\r\n                Field(\'id_aspectossolicitud\', \'reference aspectossolicitud\', label=T(\'Aspect\'), writable=0),\r\n                Field(\'id_experto\', \'reference expertosasociados\', label=T(\'Expert\')),\r\n                Field(\'evaluacion\', default=\'Sin evaluaci\xc3\xb3n\',\r\n                      requires=IS_IN_SET([\'Muy Mal\', \'Mal\', \'Regular\', \'Bien\', \'Muy Bien\']),\r\n                      label=T(\'Evaluation\')),\r\n                Field(\'delphi\', \'string\', default=\'Sin ejecutar\'))\r\n\r\n#Triggers\r\n\r\n#Restricciones\r\ndb.evaluaciones.id_experto.readable = False\r\ndb.evaluaciones.id_experto.writable = False\r\ndb.evaluaciones.id.writable = False\r\ndb.evaluaciones.id.readable = False\r\ndb.evaluaciones.id_solicitudes.requires = IS_IN_DB(db, db.solicitudes, \'%(proyecto)s\')\r\n#-------------------------------------------------------------------------------------------------------#\r\n\r\n#Tabla del inverso de la distribuci\xc3\xb3n normal est\xc3\xa1ndar acumulativa de los valores probabil\xc3\xadsticos entre 0 y 1\r\ndb.define_table(\'valores\',\r\n                Field(\'valor\', \'float\', unique=True),\r\n                Field(\'idnea\', \'float\'))\r\n\r\n\r\ndb.define_table(\'tabla1\',\r\n                Field(\'year\',\'integer\',unique=True),\r\n                Field(\'azucar\',\'float\'),\r\n                Field(\'cacao\',\'float\'),\r\n                Field(\'cafe\',\'float\'),\r\n                Field(\'copra\',\'float\'))\r\n\r\ndb.tabla1.id.writable = False\r\ndb.tabla1.id.readable = False\r\n\r\ndb.define_table(\'tabla2\',\r\n                Field(\'producto\',\'string\'),\r\n                Field(\'year\',\'integer\'),\r\n                Field(\'kilogramos\',\'long\',default=\'0\'),\r\n                Field(\'valor\',\'long\',default=\'0\'))\r\n\r\ndb.define_table(\'tabla3\',\r\n                Field(\'producto\',\'string\'),\r\n                Field(\'year\',\'integer\'),\r\n                Field(\'kilogramos\',\'long\',default=\'0\'),\r\n                Field(\'valor\',\'long\',default=\'0\'))'
p7
sS'snapshot'
p8
(dp9
S'exception'
p10
(dp11
S'__getslice__'
p12
S"<method-wrapper '__getslice__' of exceptions.SyntaxError object>"
p13
sS'text'
p14
S'None'
p15
sS'__str__'
p16
S"<method-wrapper '__str__' of exceptions.SyntaxError object>"
p17
sS'__reduce__'
p18
S'<built-in method __reduce__ of exceptions.SyntaxError object>'
p19
sS'__dict__'
p20
S'{}'
p21
sS'__sizeof__'
p22
S'<built-in method __sizeof__ of exceptions.SyntaxError object>'
p23
sS'__init__'
p24
S"<method-wrapper '__init__' of exceptions.SyntaxError object>"
p25
sS'__setattr__'
p26
S"<method-wrapper '__setattr__' of exceptions.SyntaxError object>"
p27
sS'__reduce_ex__'
p28
S'<built-in method __reduce_ex__ of exceptions.SyntaxError object>'
p29
sS'__new__'
p30
S'<built-in method __new__ of type object>'
p31
sS'__format__'
p32
S'<built-in method __format__ of exceptions.SyntaxError object>'
p33
sS'__class__'
p34
S"<type 'exceptions.SyntaxError'>"
p35
sS'filename'
p36
S'None'
p37
sS'lineno'
p38
S'None'
p39
sS'msg'
p40
S"'Field: unknown field type: long for kilogramos'"
p41
sS'__doc__'
p42
S"'Invalid syntax.'"
p43
sS'__getitem__'
p44
S"<method-wrapper '__getitem__' of exceptions.SyntaxError object>"
p45
sS'__setstate__'
p46
S'<built-in method __setstate__ of exceptions.SyntaxError object>'
p47
sS'__getattribute__'
p48
S"<method-wrapper '__getattribute__' of exceptions.SyntaxError object>"
p49
sS'print_file_and_line'
p50
S'None'
p51
sS'args'
p52
S"('Field: unknown field type: long for kilogramos',)"
p53
sS'__subclasshook__'
p54
S'<built-in method __subclasshook__ of type object>'
p55
sS'offset'
p56
S'None'
p57
sS'__unicode__'
p58
S'<built-in method __unicode__ of exceptions.SyntaxError object>'
p59
sS'__delattr__'
p60
S"<method-wrapper '__delattr__' of exceptions.SyntaxError object>"
p61
sS'__repr__'
p62
S"<method-wrapper '__repr__' of exceptions.SyntaxError object>"
p63
sS'__hash__'
p64
S"<method-wrapper '__hash__' of exceptions.SyntaxError object>"
p65
ssS'evalue'
p66
S'Field: unknown field type: long for kilogramos'
p67
sS'request'
p68
cgluon.html
XML_unpickle
p69
(S's![\x00\x00<div><table><tr><td style="font-weight:bold;vertical-align:top;">ajax</td><td style="vertical-align:top;">:</td><td><div>False</div></td></tr><tr><td style="font-weight:bold;vertical-align:top;">application</td><td style="vertical-align:top;">:</td><td><div>seunova</div></td></tr><tr><td style="font-weight:bold;vertical-align:top;">args</td><td style="vertical-align:top;">:</td><td><div><table></table></div></td></tr><tr><td style="font-weight:bold;vertical-align:top;">cid</td><td style="vertical-align:top;">:</td><td><div>None</div></td></tr><tr><td style="font-weight:bold;vertical-align:top;">client</td><td style="vertical-align:top;">:</td><td><div>127.0.0.1</div></td></tr><tr><td style="font-weight:bold;vertical-align:top;">controller</td><td style="vertical-align:top;">:</td><td><div>default</div></td></tr><tr><td style="font-weight:bold;vertical-align:top;">cookies</td><td style="vertical-align:top;">:</td><td><div><table><tr><td style="font-weight:bold;vertical-align:top;">session_id_admin</td><td style="vertical-align:top;">:</td><td><div>127.0.0.1-ea595b79-e0b1-428c-ac46-9ee585f2a1d7<table><tr><td style="font-weight:bold;vertical-align:top;">comment</td><td style="vertical-align:top;">:</td><td><div></div></td></tr><tr><td style="font-weight:bold;vertical-align:top;">domain</td><td style="vertical-align:top;">:</td><td><div></div></td></tr><tr><td style="font-weight:bold;vertical-align:top;">expires</td><td style="vertical-align:top;">:</td><td><div></div></td></tr><tr><td style="font-weight:bold;vertical-align:top;">httponly</td><td style="vertical-align:top;">:</td><td><div></div></td></tr><tr><td style="font-weight:bold;vertical-align:top;">max-age</td><td style="vertical-align:top;">:</td><td><div></div></td></tr><tr><td style="font-weight:bold;vertical-align:top;">path</td><td style="vertical-align:top;">:</td><td><div></div></td></tr><tr><td style="font-weight:bold;vertical-align:top;">secure</td><td style="vertical-align:top;">:</td><td><div></div></td></tr><tr><td style="font-weight:bold;vertical-align:top;">version</td><td style="vertical-align:top;">:</td><td><div></div></td></tr></table></div></td></tr><tr><td style="font-weight:bold;vertical-align:top;">session_id_seunova</td><td style="vertical-align:top;">:</td><td><div>127.0.0.1-e7ec54b4-0056-4779-be34-712f73d09b40<table><tr><td style="font-weight:bold;vertical-align:top;">comment</td><td style="vertical-align:top;">:</td><td><div></div></td></tr><tr><td style="font-weight:bold;vertical-align:top;">domain</td><td style="vertical-align:top;">:</td><td><div></div></td></tr><tr><td style="font-weight:bold;vertical-align:top;">expires</td><td style="vertical-align:top;">:</td><td><div></div></td></tr><tr><td style="font-weight:bold;vertical-align:top;">httponly</td><td style="vertical-align:top;">:</td><td><div></div></td></tr><tr><td style="font-weight:bold;vertical-align:top;">max-age</td><td style="vertical-align:top;">:</td><td><div></div></td></tr><tr><td style="font-weight:bold;vertical-align:top;">path</td><td style="vertical-align:top;">:</td><td><div></div></td></tr><tr><td style="font-weight:bold;vertical-align:top;">secure</td><td style="vertical-align:top;">:</td><td><div></div></td></tr><tr><td style="font-weight:bold;vertical-align:top;">version</td><td style="vertical-align:top;">:</td><td><div></div></td></tr></table></div></td></tr><tr><td style="font-weight:bold;vertical-align:top;">session_id_welcome</td><td style="vertical-align:top;">:</td><td><div>127.0.0.1-bd0d55dd-6da5-4d19-ba49-c8b0d612f8bd<table><tr><td style="font-weight:bold;vertical-align:top;">comment</td><td style="vertical-align:top;">:</td><td><div></div></td></tr><tr><td style="font-weight:bold;vertical-align:top;">domain</td><td style="vertical-align:top;">:</td><td><div></div></td></tr><tr><td style="font-weight:bold;vertical-align:top;">expires</td><td style="vertical-align:top;">:</td><td><div></div></td></tr><tr><td style="font-weight:bold;vertical-align:top;">httponly</td><td style="vertical-align:top;">:</td><td><div></div></td></tr><tr><td style="font-weight:bold;vertical-align:top;">max-age</td><td style="vertical-align:top;">:</td><td><div></div></td></tr><tr><td style="font-weight:bold;vertical-align:top;">path</td><td style="vertical-align:top;">:</td><td><div></div></td></tr><tr><td style="font-weight:bold;vertical-align:top;">secure</td><td style="vertical-align:top;">:</td><td><div></div></td></tr><tr><td style="font-weight:bold;vertical-align:top;">version</td><td style="vertical-align:top;">:</td><td><div></div></td></tr></table></div></td></tr></table></div></td></tr><tr><td style="font-weight:bold;vertical-align:top;">env</td><td style="vertical-align:top;">:</td><td><div><table><tr><td style="font-weight:bold;vertical-align:top;">HTTP_ACCEPT</td><td style="vertical-align:top;">:</td><td><div>text/html,application/xhtml+xml,application/xml;q=0.9,*/*;q=0.8</div></td></tr><tr><td style="font-weight:bold;vertical-align:top;">HTTP_ACCEPT_ENCODING</td><td style="vertical-align:top;">:</td><td><div>gzip, deflate</div></td></tr><tr><td style="font-weight:bold;vertical-align:top;">HTTP_ACCEPT_LANGUAGE</td><td style="vertical-align:top;">:</td><td><div>en-US,en;q=0.5</div></td></tr><tr><td style="font-weight:bold;vertical-align:top;">HTTP_CONNECTION</td><td style="vertical-align:top;">:</td><td><div>keep-alive</div></td></tr><tr><td style="font-weight:bold;vertical-align:top;">HTTP_COOKIE</td><td style="vertical-align:top;">:</td><td><div>session_id_welcome=127.0.0.1-bd0d55dd-6da5-4d19-ba49-c8b0d612f8bd; session_id_admin=127.0.0.1-ea595b79-e0b1-428c-ac46-9ee585f2a1d7; session_id_seunova=127.0.0.1-e7ec54b4-0056-4779-be34-712f73d09b40</div></td></tr><tr><td style="font-weight:bold;vertical-align:top;">HTTP_HOST</td><td style="vertical-align:top;">:</td><td><div>127.0.0.1:8000</div></td></tr><tr><td style="font-weight:bold;vertical-align:top;">HTTP_REFERER</td><td style="vertical-align:top;">:</td><td><div>http://127.0.0.1:8000/admin/default/site</div></td></tr><tr><td style="font-weight:bold;vertical-align:top;">HTTP_USER_AGENT</td><td style="vertical-align:top;">:</td><td><div>Mozilla/5.0 (X11; Ubuntu; Linux x86_64; rv:46.0) Gecko/20100101 Firefox/46.0</div></td></tr><tr><td style="font-weight:bold;vertical-align:top;">PATH_INFO</td><td style="vertical-align:top;">:</td><td><div>/seunova/default/index</div></td></tr><tr><td style="font-weight:bold;vertical-align:top;">QUERY_STRING</td><td style="vertical-align:top;">:</td><td><div></div></td></tr><tr><td style="font-weight:bold;vertical-align:top;">REMOTE_ADDR</td><td style="vertical-align:top;">:</td><td><div>127.0.0.1</div></td></tr><tr><td style="font-weight:bold;vertical-align:top;">REMOTE_PORT</td><td style="vertical-align:top;">:</td><td><div>42432</div></td></tr><tr><td style="font-weight:bold;vertical-align:top;">REQUEST_METHOD</td><td style="vertical-align:top;">:</td><td><div>GET</div></td></tr><tr><td style="font-weight:bold;vertical-align:top;">SCRIPT_NAME</td><td style="vertical-align:top;">:</td><td><div></div></td></tr><tr><td style="font-weight:bold;vertical-align:top;">SERVER_NAME</td><td style="vertical-align:top;">:</td><td><div>miguel-asus-X555LAB</div></td></tr><tr><td style="font-weight:bold;vertical-align:top;">SERVER_PORT</td><td style="vertical-align:top;">:</td><td><div>8000</div></td></tr><tr><td style="font-weight:bold;vertical-align:top;">SERVER_PROTOCOL</td><td style="vertical-align:top;">:</td><td><div>HTTP/1.1</div></td></tr><tr><td style="font-weight:bold;vertical-align:top;">SERVER_SOFTWARE</td><td style="vertical-align:top;">:</td><td><div>Rocket 1.2.6</div></td></tr><tr><td style="font-weight:bold;vertical-align:top;">app_folders</td><td style="vertical-align:top;">:</td><td><div>set([&#x27;/media/miguel/WORK/web2py/applications/welcome/&#x27;, &#x27;/media/miguel/WORK/web2py/applications/seunova/&#x27;, &#x27;/media/miguel/WORK/web2py/applications/admin/&#x27;])</div></td></tr><tr><td style="font-weight:bold;vertical-align:top;">applications_parent</td><td style="vertical-align:top;">:</td><td><div>/media/miguel/WORK/web2py</div></td></tr><tr><td style="font-weight:bold;vertical-align:top;">cmd_args</td><td style="vertical-align:top;">:</td><td><div><table></table></div></td></tr><tr><td style="font-weight:bold;vertical-align:top;">cmd_options</td><td style="vertical-align:top;">:</td><td><div>&lt;Values at 0x7f73d62d4fc8: {&#x27;verbose&#x27;: False, &#x27;ip&#x27;: &#x27;127.0.0.1&#x27;, &#x27;debuglevel&#x27;: 30, &#x27;with_scheduler&#x27;: False, &#x27;ips&#x27;: [&#x27;127.0.1.1&#x27;], &#x27;shutdown_timeout&#x27;: 5, &#x27;taskbar&#x27;: False, &#x27;with_coverage&#x27;: False, &#x27;scheduler_groups&#x27;: None, &#x27;port&#x27;: 8000, &#x27;maxthreads&#x27;: None, &#x27;softcron&#x27;: False, &#x27;server_name&#x27;: &#x27;miguel-asus-X555LAB&#x27;, &#x27;bpython&#x27;: False, &#x27;nogui&#x27;: False, &#x27;pid_filename&#x27;: &#x27;httpserver.pid&#x27;, &#x27;extcron&#x27;: False, &#x27;runcron&#x27;: False, &#x27;run_system_tests&#x27;: False, &#x27;test&#x27;: None, &#x27;folder&#x27;: &#x27;/media/miguel/WORK/web2py&#x27;, &#x27;config&#x27;: &#x27;&#x27;, &#x27;minthreads&#x27;: None, &#x27;shell&#x27;: None, &#x27;run&#x27;: &#x27;&#x27;, &#x27;log_filename&#x27;: &#x27;httpserver.log&#x27;, &#x27;profiler_dir&#x27;: None, &#x27;args&#x27;: [&#x27;&#x27;], &#x27;socket_timeout&#x27;: 5, &#x27;ssl_ca_certificate&#x27;: None, &#x27;scheduler&#x27;: None, &#x27;interfaces&#x27;: None, &#x27;ssl_private_key&#x27;: &#x27;&#x27;, &#x27;gae&#x27;: None, &#x27;password&#x27;: &#x27;&lt;ask&gt;&#x27;, &#x27;request_queue_size&#x27;: 5, &#x27;ssl_certificate&#x27;: &#x27;&#x27;, &#x27;cronjob&#x27;: False, &#x27;numthreads&#x27;: None, &#x27;quiet&#x27;: False, &#x27;import_models&#x27;: False, &#x27;timeout&#x27;: 10, &#x27;plain&#x27;: False, &#x27;nobanner&#x27;: False}&gt;</div></td></tr><tr><td style="font-weight:bold;vertical-align:top;">db_sessions</td><td style="vertical-align:top;">:</td><td><div>set([])</div></td></tr><tr><td style="font-weight:bold;vertical-align:top;">debugging</td><td style="vertical-align:top;">:</td><td><div>False</div></td></tr><tr><td style="font-weight:bold;vertical-align:top;">gluon_parent</td><td style="vertical-align:top;">:</td><td><div>/media/miguel/WORK/web2py</div></td></tr><tr><td style="font-weight:bold;vertical-align:top;">http_accept</td><td style="vertical-align:top;">:</td><td><div>text/html,application/xhtml+xml,application/xml;q=0.9,*/*;q=0.8</div></td></tr><tr><td style="font-weight:bold;vertical-align:top;">http_accept_encoding</td><td style="vertical-align:top;">:</td><td><div>gzip, deflate</div></td></tr><tr><td style="font-weight:bold;vertical-align:top;">http_accept_language</td><td style="vertical-align:top;">:</td><td><div>en-US,en;q=0.5</div></td></tr><tr><td style="font-weight:bold;vertical-align:top;">http_connection</td><td style="vertical-align:top;">:</td><td><div>keep-alive</div></td></tr><tr><td style="font-weight:bold;vertical-align:top;">http_cookie</td><td style="vertical-align:top;">:</td><td><div>session_id_welcome=127.0.0.1-bd0d55dd-6da5-4d19-ba49-c8b0d612f8bd; session_id_admin=127.0.0.1-ea595b79-e0b1-428c-ac46-9ee585f2a1d7; session_id_seunova=127.0.0.1-e7ec54b4-0056-4779-be34-712f73d09b40</div></td></tr><tr><td style="font-weight:bold;vertical-align:top;">http_host</td><td style="vertical-align:top;">:</td><td><div>127.0.0.1:8000</div></td></tr><tr><td style="font-weight:bold;vertical-align:top;">http_referer</td><td style="vertical-align:top;">:</td><td><div>http://127.0.0.1:8000/admin/default/site</div></td></tr><tr><td style="font-weight:bold;vertical-align:top;">http_user_agent</td><td style="vertical-align:top;">:</td><td><div>Mozilla/5.0 (X11; Ubuntu; Linux x86_64; rv:46.0) Gecko/20100101 Firefox/46.0</div></td></tr><tr><td style="font-weight:bold;vertical-align:top;">is_jython</td><td style="vertical-align:top;">:</td><td><div>False</div></td></tr><tr><td style="font-weight:bold;vertical-align:top;">is_pypy</td><td style="vertical-align:top;">:</td><td><div>False</div></td></tr><tr><td style="font-weight:bold;vertical-align:top;">is_source</td><td style="vertical-align:top;">:</td><td><div>True</div></td></tr><tr><td style="font-weight:bold;vertical-align:top;">local_hosts</td><td style="vertical-align:top;">:</td><td><div><table><tr><td><div>miguel-asus-X555LAB</div></td></tr><tr><td><div>::1</div></td></tr><tr><td><div>127.0.1.1</div></td></tr><tr><td><div>::ffff:127.0.0.1</div></td></tr><tr><td><div>127.0.0.1</div></td></tr></table></div></td></tr><tr><td style="font-weight:bold;vertical-align:top;">path_info</td><td style="vertical-align:top;">:</td><td><div>/seunova/default/index</div></td></tr><tr><td style="font-weight:bold;vertical-align:top;">query_string</td><td style="vertical-align:top;">:</td><td><div></div></td></tr><tr><td style="font-weight:bold;vertical-align:top;">remote_addr</td><td style="vertical-align:top;">:</td><td><div>127.0.0.1</div></td></tr><tr><td style="font-weight:bold;vertical-align:top;">remote_port</td><td style="vertical-align:top;">:</td><td><div>42432</div></td></tr><tr><td style="font-weight:bold;vertical-align:top;">request_method</td><td style="vertical-align:top;">:</td><td><div>GET</div></td></tr><tr><td style="font-weight:bold;vertical-align:top;">request_uri</td><td style="vertical-align:top;">:</td><td><div>/seunova/default/index</div></td></tr><tr><td style="font-weight:bold;vertical-align:top;">script_name</td><td style="vertical-align:top;">:</td><td><div></div></td></tr><tr><td style="font-weight:bold;vertical-align:top;">server_name</td><td style="vertical-align:top;">:</td><td><div>miguel-asus-X555LAB</div></td></tr><tr><td style="font-weight:bold;vertical-align:top;">server_port</td><td style="vertical-align:top;">:</td><td><div>8000</div></td></tr><tr><td style="font-weight:bold;vertical-align:top;">server_protocol</td><td style="vertical-align:top;">:</td><td><div>HTTP/1.1</div></td></tr><tr><td style="font-weight:bold;vertical-align:top;">server_software</td><td style="vertical-align:top;">:</td><td><div>Rocket 1.2.6</div></td></tr><tr><td style="font-weight:bold;vertical-align:top;">web2py_path</td><td style="vertical-align:top;">:</td><td><div>/media/miguel/WORK/web2py</div></td></tr><tr><td style="font-weight:bold;vertical-align:top;">web2py_version</td><td style="vertical-align:top;">:</td><td><div>2.9.12-stable+timestamp.2015.01.17.06.11.03</div></td></tr><tr><td style="font-weight:bold;vertical-align:top;">wsgi.errors</td><td style="vertical-align:top;">:</td><td><div>&lt;open file &#x27;&lt;stderr&gt;&#x27;, mode &#x27;w&#x27; at 0x7f73dcb391e0&gt;</div></td></tr><tr><td style="font-weight:bold;vertical-align:top;">wsgi.file_wrapper</td><td style="vertical-align:top;">:</td><td><div>&lt;class wsgiref.util.FileWrapper at 0x7f73d63410b8&gt;</div></td></tr><tr><td style="font-weight:bold;vertical-align:top;">wsgi.input</td><td style="vertical-align:top;">:</td><td><div>&lt;socket._fileobject object at 0x7f73cc6e3c50&gt;</div></td></tr><tr><td style="font-weight:bold;vertical-align:top;">wsgi.multiprocess</td><td style="vertical-align:top;">:</td><td><div>False</div></td></tr><tr><td style="font-weight:bold;vertical-align:top;">wsgi.multithread</td><td style="vertical-align:top;">:</td><td><div>True</div></td></tr><tr><td style="font-weight:bold;vertical-align:top;">wsgi.run_once</td><td style="vertical-align:top;">:</td><td><div>False</div></td></tr><tr><td style="font-weight:bold;vertical-align:top;">wsgi.url_scheme</td><td style="vertical-align:top;">:</td><td><div>http</div></td></tr><tr><td style="font-weight:bold;vertical-align:top;">wsgi.version</td><td style="vertical-align:top;">:</td><td><div><table><tr><td><div>1</div></td></tr><tr><td><div>0</div></td></tr></table></div></td></tr><tr><td style="font-weight:bold;vertical-align:top;">wsgi_errors</td><td style="vertical-align:top;">:</td><td><div>&lt;open file &#x27;&lt;stderr&gt;&#x27;, mode &#x27;w&#x27; at 0x7f73dcb391e0&gt;</div></td></tr><tr><td style="font-weight:bold;vertical-align:top;">wsgi_file_wrapper</td><td style="vertical-align:top;">:</td><td><div>&lt;class wsgiref.util.FileWrapper at 0x7f73d63410b8&gt;</div></td></tr><tr><td style="font-weight:bold;vertical-align:top;">wsgi_input</td><td style="vertical-align:top;">:</td><td><div>&lt;socket._fileobject object at 0x7f73cc6e3c50&gt;</div></td></tr><tr><td style="font-weight:bold;vertical-align:top;">wsgi_multiprocess</td><td style="vertical-align:top;">:</td><td><div>False</div></td></tr><tr><td style="font-weight:bold;vertical-align:top;">wsgi_multithread</td><td style="vertical-align:top;">:</td><td><div>True</div></td></tr><tr><td style="font-weight:bold;vertical-align:top;">wsgi_run_once</td><td style="vertical-align:top;">:</td><td><div>False</div></td></tr><tr><td style="font-weight:bold;vertical-align:top;">wsgi_url_scheme</td><td style="vertical-align:top;">:</td><td><div>http</div></td></tr><tr><td style="font-weight:bold;vertical-align:top;">wsgi_version</td><td style="vertical-align:top;">:</td><td><div><table><tr><td><div>1</div></td></tr><tr><td><div>0</div></td></tr></table></div></td></tr></table></div></td></tr><tr><td style="font-weight:bold;vertical-align:top;">extension</td><td style="vertical-align:top;">:</td><td><div>html</div></td></tr><tr><td style="font-weight:bold;vertical-align:top;">folder</td><td style="vertical-align:top;">:</td><td><div>/media/miguel/WORK/web2py/applications/seunova/</div></td></tr><tr><td style="font-weight:bold;vertical-align:top;">function</td><td style="vertical-align:top;">:</td><td><div>index</div></td></tr><tr><td style="font-weight:bold;vertical-align:top;">global_settings</td><td style="vertical-align:top;">:</td><td><div><table><tr><td style="font-weight:bold;vertical-align:top;">app_folders</td><td style="vertical-align:top;">:</td><td><div>set([&#x27;/media/miguel/WORK/web2py/applications/welcome/&#x27;, &#x27;/media/miguel/WORK/web2py/applications/seunova/&#x27;, &#x27;/media/miguel/WORK/web2py/applications/admin/&#x27;])</div></td></tr><tr><td style="font-weight:bold;vertical-align:top;">applications_parent</td><td style="vertical-align:top;">:</td><td><div>/media/miguel/WORK/web2py</div></td></tr><tr><td style="font-weight:bold;vertical-align:top;">cmd_args</td><td style="vertical-align:top;">:</td><td><div><table></table></div></td></tr><tr><td style="font-weight:bold;vertical-align:top;">cmd_options</td><td style="vertical-align:top;">:</td><td><div>&lt;Values at 0x7f73d62d4fc8: {&#x27;verbose&#x27;: False, &#x27;ip&#x27;: &#x27;127.0.0.1&#x27;, &#x27;debuglevel&#x27;: 30, &#x27;with_scheduler&#x27;: False, &#x27;ips&#x27;: [&#x27;127.0.1.1&#x27;], &#x27;shutdown_timeout&#x27;: 5, &#x27;taskbar&#x27;: False, &#x27;with_coverage&#x27;: False, &#x27;scheduler_groups&#x27;: None, &#x27;port&#x27;: 8000, &#x27;maxthreads&#x27;: None, &#x27;softcron&#x27;: False, &#x27;server_name&#x27;: &#x27;miguel-asus-X555LAB&#x27;, &#x27;bpython&#x27;: False, &#x27;nogui&#x27;: False, &#x27;pid_filename&#x27;: &#x27;httpserver.pid&#x27;, &#x27;extcron&#x27;: False, &#x27;runcron&#x27;: False, &#x27;run_system_tests&#x27;: False, &#x27;test&#x27;: None, &#x27;folder&#x27;: &#x27;/media/miguel/WORK/web2py&#x27;, &#x27;config&#x27;: &#x27;&#x27;, &#x27;minthreads&#x27;: None, &#x27;shell&#x27;: None, &#x27;run&#x27;: &#x27;&#x27;, &#x27;log_filename&#x27;: &#x27;httpserver.log&#x27;, &#x27;profiler_dir&#x27;: None, &#x27;args&#x27;: [&#x27;&#x27;], &#x27;socket_timeout&#x27;: 5, &#x27;ssl_ca_certificate&#x27;: None, &#x27;scheduler&#x27;: None, &#x27;interfaces&#x27;: None, &#x27;ssl_private_key&#x27;: &#x27;&#x27;, &#x27;gae&#x27;: None, &#x27;password&#x27;: &#x27;&lt;ask&gt;&#x27;, &#x27;request_queue_size&#x27;: 5, &#x27;ssl_certificate&#x27;: &#x27;&#x27;, &#x27;cronjob&#x27;: False, &#x27;numthreads&#x27;: None, &#x27;quiet&#x27;: False, &#x27;import_models&#x27;: False, &#x27;timeout&#x27;: 10, &#x27;plain&#x27;: False, &#x27;nobanner&#x27;: False}&gt;</div></td></tr><tr><td style="font-weight:bold;vertical-align:top;">db_sessions</td><td style="vertical-align:top;">:</td><td><div>set([])</div></td></tr><tr><td style="font-weight:bold;vertical-align:top;">debugging</td><td style="vertical-align:top;">:</td><td><div>False</div></td></tr><tr><td style="font-weight:bold;vertical-align:top;">gluon_parent</td><td style="vertical-align:top;">:</td><td><div>/media/miguel/WORK/web2py</div></td></tr><tr><td style="font-weight:bold;vertical-align:top;">is_jython</td><td style="vertical-align:top;">:</td><td><div>False</div></td></tr><tr><td style="font-weight:bold;vertical-align:top;">is_pypy</td><td style="vertical-align:top;">:</td><td><div>False</div></td></tr><tr><td style="font-weight:bold;vertical-align:top;">is_source</td><td style="vertical-align:top;">:</td><td><div>True</div></td></tr><tr><td style="font-weight:bold;vertical-align:top;">local_hosts</td><td style="vertical-align:top;">:</td><td><div><table><tr><td><div>miguel-asus-X555LAB</div></td></tr><tr><td><div>::1</div></td></tr><tr><td><div>127.0.1.1</div></td></tr><tr><td><div>::ffff:127.0.0.1</div></td></tr><tr><td><div>127.0.0.1</div></td></tr></table></div></td></tr><tr><td style="font-weight:bold;vertical-align:top;">web2py_version</td><td style="vertical-align:top;">:</td><td><div>2.9.12-stable+timestamp.2015.01.17.06.11.03</div></td></tr></table></div></td></tr><tr><td style="font-weight:bold;vertical-align:top;">is_https</td><td style="vertical-align:top;">:</td><td><div>False</div></td></tr><tr><td style="font-weight:bold;vertical-align:top;">is_local</td><td style="vertical-align:top;">:</td><td><div>True</div></td></tr><tr><td style="font-weight:bold;vertical-align:top;">is_restful</td><td style="vertical-align:top;">:</td><td><div>False</div></td></tr><tr><td style="font-weight:bold;vertical-align:top;">is_sheduler</td><td style="vertical-align:top;">:</td><td><div>None</div></td></tr><tr><td style="font-weight:bold;vertical-align:top;">is_shell</td><td style="vertical-align:top;">:</td><td><div>None</div></td></tr><tr><td style="font-weight:bold;vertical-align:top;">now</td><td style="vertical-align:top;">:</td><td><div>datetime.datetime(2016, 5, 5, 18, 37, 27, 790084)</div></td></tr><tr><td style="font-weight:bold;vertical-align:top;">raw_args</td><td style="vertical-align:top;">:</td><td><div></div></td></tr><tr><td style="font-weight:bold;vertical-align:top;">raw_extension</td><td style="vertical-align:top;">:</td><td><div>None</div></td></tr><tr><td style="font-weight:bold;vertical-align:top;">url</td><td style="vertical-align:top;">:</td><td><div>/seunova/default/index</div></td></tr><tr><td style="font-weight:bold;vertical-align:top;">utcnow</td><td style="vertical-align:top;">:</td><td><div>datetime.datetime(2016, 5, 5, 22, 37, 27, 790100)</div></td></tr><tr><td style="font-weight:bold;vertical-align:top;">uuid</td><td style="vertical-align:top;">:</td><td><div>seunova/127.0.0.1.2016-05-05.18-37-27.d269c4cc-4ac9-49ec-8b6c-f91c2fde99ce</div></td></tr><tr><td style="font-weight:bold;vertical-align:top;">wsgi</td><td style="vertical-align:top;">:</td><td><div>&lt;gluon.main.LazyWSGI object at 0x7f73cc6d3ad0&gt;</div></td></tr></table></div>'
tRp70
sS'frames'
p71
(lp72
(dp73
S'file'
p74
S'/media/miguel/WORK/web2py/gluon/restricted.py'
p75
sS'dump'
p76
(dp77
S'environment'
p78
S"{'A': <class 'gluon.html.A'>, 'ANY_OF': <class 'gluon.validators.ANY_OF'>, 'ASSIGNJS': <function ASSIGNJS>, 'Auth': <class 'gluon.tools.Auth'>, 'B': <class 'gluon.html.B'>, 'BEAUTIFY': <class 'gluon.html.BEAUTIFY'>, 'BODY': <class 'gluon.html.BODY'>, 'BR': <class 'gluon.html.BR'>, 'BUTTON': <class 'gluon.html.BUTTON'>, 'CAT': <class 'gluon.html.CAT'>, ...}"
p79
sS'ccode'
p80
S'<code object <module> at 0x7f73cc56cf30, file "/...pplications/seunova/models/db_tables.py", line 3>'
p81
ssS'lnum'
p82
I224
sS'lines'
p83
(dp84
I224
S'        exec ccode in environment'
p85
sI225
S'    except HTTP:'
p86
sI226
S'        raise'
p87
sI227
S'    except RestrictedError:'
p88
sI228
S'        # do not encapsulate (obfuscate) the original RestrictedError'
p89
sI219
S'    try:'
p90
sI220
S'        if isinstance(code, types.CodeType):'
p91
sI221
S'            ccode = code'
p92
sI222
S'        else:'
p93
sI223
S'            ccode = compile2(code, layer)'
p94
ssS'call'
p95
S'(code="# coding=utf-8\\r\\n\\r\\n__author__ = \'Miguel Antonio\'\\r...               Field(\'valor\',\'long\',default=\'0\'))", environment={\'A\': <class \'gluon.html.A\'>, \'ANY_OF\': <class \'gluon.validators.ANY_OF\'>, \'ASSIGNJS\': <function ASSIGNJS>, \'Auth\': <class \'gluon.tools.Auth\'>, \'B\': <class \'gluon.html.B\'>, \'BEAUTIFY\': <class \'gluon.html.BEAUTIFY\'>, \'BODY\': <class \'gluon.html.BODY\'>, \'BR\': <class \'gluon.html.BR\'>, \'BUTTON\': <class \'gluon.html.BUTTON\'>, \'CAT\': <class \'gluon.html.CAT\'>, ...}, layer=\'/media/miguel/WORK/web2py/applications/seunova/models/db_tables.py\')'
p96
sS'func'
p97
S'restricted'
p98
sa(dp99
g74
S'/media/miguel/WORK/web2py/applications/seunova/models/db_tables.py'
p100
sg76
(dp101
S'default'
p102
S'undefined'
p103
sS'Field'
p104
S"<class 'gluon.dal.objects.Field'>"
p105
ssg82
I156
sg83
(dp106
I160
S"                Field('year','integer'),"
p107
sI151
S''
sI152
S"db.define_table('tabla2',"
p108
sI153
S"                Field('producto','string'),"
p109
sI154
S"                Field('year','integer'),"
p110
sI155
S"                Field('kilogramos','long',default='0'),"
p111
sI156
S"                Field('valor','long',default='0'))"
p112
sI157
S''
sI158
S"db.define_table('tabla3',"
p113
sI159
S"                Field('producto','string'),"
p114
ssg95
S'()'
p115
sg97
S'<module>'
p116
sa(dp117
g74
S'/media/miguel/WORK/web2py/gluon/dal/base.py'
p118
sg76
(dp119
S'fields'
p120
S'(<gluon.dal.objects.Field object>, <gluon.dal.objects.Field object>, <gluon.dal.objects.Field object>, <gluon.dal.objects.Field object>)'
p121
sS'self'
p122
S'<DAL uri="sqlite://storage.sqlite">'
p123
sS'args'
p124
g21
sS'tablename'
p125
S"'tabla2'"
p126
sS'table'
p127
g103
sS'self.lazy_define_table'
p128
S'<bound method DAL.lazy_define_table of <DAL uri="sqlite://storage.sqlite">>'
p129
ssg82
I787
sg83
(dp130
I782
S'                    % (tablename,invalid_args))'
p131
sI783
S'        if self._lazy_tables and not tablename in self._LAZY_TABLES:'
p132
sI784
S'            self._LAZY_TABLES[tablename] = (tablename,fields,args)'
p133
sI785
S'            table = None'
p134
sI786
S'        else:'
p135
sI787
S'            table = self.lazy_define_table(tablename,*fields,**args)'
p136
sI788
S'        if not tablename in self.tables:'
p137
sI789
S'            self.tables.append(tablename)'
p138
sI790
S'        return table'
p139
sI791
S''
ssg95
S'(self=<DAL uri="sqlite://storage.sqlite">, tablename=\'tabla2\', *fields=(<gluon.dal.objects.Field object>, <gluon.dal.objects.Field object>, <gluon.dal.objects.Field object>, <gluon.dal.objects.Field object>), **args={})'
p140
sg97
S'define_table'
p141
sa(dp142
g74
S'/media/miguel/WORK/web2py/gluon/dal/base.py'
p143
sg76
(dp144
S'polymodel'
p145
S'None'
p146
ssg82
I824
sg83
(dp147
I819
S'            try:'
p148
sI820
S'                GLOBAL_LOCKER.acquire()'
p149
sI821
S'                self._lastsql = self._adapter.create_table('
p150
sI822
S'                    table,migrate=migrate,'
p151
sI823
S'                    fake_migrate=fake_migrate,'
p152
sI824
S'                    polymodel=polymodel)'
p153
sI825
S'            finally:'
p154
sI826
S'                GLOBAL_LOCKER.release()'
p155
sI827
S'        else:'
p156
sI828
S'            table._dbt = None'
p157
ssg95
S'(self=<DAL uri="sqlite://storage.sqlite">, tablename=\'tabla2\', *fields=(<gluon.dal.objects.Field object>, <gluon.dal.objects.Field object>, <gluon.dal.objects.Field object>, <gluon.dal.objects.Field object>), **args={})'
p158
sg97
S'lazy_define_table'
p159
sa(dp160
g74
S'/media/miguel/WORK/web2py/gluon/dal/adapters/base.py'
p161
sg76
(dp162
S'field_type'
p163
S"'long'"
p164
sS'field_name'
p165
S"'kilogramos'"
p166
ssg82
I362
sg83
(dp167
I357
S'                                         fieldname=field_name, srid=srid,'
p168
sI358
S'                                         dimension=dimension)'
p169
sI359
S'                    postcreation_fields.append(ftype)'
p170
sI360
S'            elif not field_type in types:'
p171
sI361
S"                raise SyntaxError('Field: unknown field type: %s for %s' % \\"
p172
sI362
S'                    (field_type, field_name))'
p173
sI363
S'            else:'
p174
sI364
S'                ftype = types[field_type]\\'
p175
sI365
S'                     % dict(length=field.length)'
p176
sI366
S"            if not field_type.startswith('id') and \\"
p177
ssg95
S'(self=<gluon.dal.adapters.sqlite.SQLiteAdapter object>, table=<Table tabla2 (id,producto,year,kilogramos,valor)>, migrate=True, fake_migrate=False, polymodel=None)'
p178
sg97
S'create_table'
p179
sasS'pyver'
p180
S'Python 2.7.11+: /usr/bin/python2.7 (prefix: /usr)'
p181
sS'session'
p182
g69
(S's7\x01\x00\x00<div><table><tr><td style="font-weight:bold;vertical-align:top;">last_orderby</td><td style="vertical-align:top;">:</td><td><div>None</div></td></tr><tr><td style="font-weight:bold;vertical-align:top;">last_query</td><td style="vertical-align:top;">:</td><td><div>db.tabla3.id&gt;0</div></td></tr></table></div>'
tRp183
sS'etype'
p184
S"<type 'exceptions.SyntaxError'>"
p185
sS'date'
p186
S'Thu May  5 18:37:27 2016'
p187
sS'response'
p188
g69
(S's\xfa\x17\x00\x00<div><table><tr><td style="font-weight:bold;vertical-align:top;">body</td><td style="vertical-align:top;">:</td><td><div>&lt;cStringIO.StringO object at 0x7f73d4032650&gt;</div></td></tr><tr><td style="font-weight:bold;vertical-align:top;">cookies</td><td style="vertical-align:top;">:</td><td><div><table><tr><td style="font-weight:bold;vertical-align:top;">session_id_seunova</td><td style="vertical-align:top;">:</td><td><div>127.0.0.1-e7ec54b4-0056-4779-be34-712f73d09b40<table><tr><td style="font-weight:bold;vertical-align:top;">comment</td><td style="vertical-align:top;">:</td><td><div></div></td></tr><tr><td style="font-weight:bold;vertical-align:top;">domain</td><td style="vertical-align:top;">:</td><td><div></div></td></tr><tr><td style="font-weight:bold;vertical-align:top;">expires</td><td style="vertical-align:top;">:</td><td><div></div></td></tr><tr><td style="font-weight:bold;vertical-align:top;">httponly</td><td style="vertical-align:top;">:</td><td><div></div></td></tr><tr><td style="font-weight:bold;vertical-align:top;">max-age</td><td style="vertical-align:top;">:</td><td><div></div></td></tr><tr><td style="font-weight:bold;vertical-align:top;">path</td><td style="vertical-align:top;">:</td><td><div>/</div></td></tr><tr><td style="font-weight:bold;vertical-align:top;">secure</td><td style="vertical-align:top;">:</td><td><div></div></td></tr><tr><td style="font-weight:bold;vertical-align:top;">version</td><td style="vertical-align:top;">:</td><td><div></div></td></tr></table></div></td></tr></table></div></td></tr><tr><td style="font-weight:bold;vertical-align:top;">delimiters</td><td style="vertical-align:top;">:</td><td><div><table><tr><td><div>{{</div></td></tr><tr><td><div>}}</div></td></tr></table></div></td></tr><tr><td style="font-weight:bold;vertical-align:top;">files</td><td style="vertical-align:top;">:</td><td><div><table></table></div></td></tr><tr><td style="font-weight:bold;vertical-align:top;">flash</td><td style="vertical-align:top;">:</td><td><div></div></td></tr><tr><td style="font-weight:bold;vertical-align:top;">form_label_separator</td><td style="vertical-align:top;">:</td><td><div>: </div></td></tr><tr><td style="font-weight:bold;vertical-align:top;">formstyle</td><td style="vertical-align:top;">:</td><td><div>table3cols</div></td></tr><tr><td style="font-weight:bold;vertical-align:top;">generic_patterns</td><td style="vertical-align:top;">:</td><td><div><table><tr><td><div>*</div></td></tr></table></div></td></tr><tr><td style="font-weight:bold;vertical-align:top;">headers</td><td style="vertical-align:top;">:</td><td><div><table><tr><td style="font-weight:bold;vertical-align:top;">X-Powered-By</td><td style="vertical-align:top;">:</td><td><div>web2py</div></td></tr></table></div></td></tr><tr><td style="font-weight:bold;vertical-align:top;">menu</td><td style="vertical-align:top;">:</td><td><div><table></table></div></td></tr><tr><td style="font-weight:bold;vertical-align:top;">meta</td><td style="vertical-align:top;">:</td><td><div><table></table></div></td></tr><tr><td style="font-weight:bold;vertical-align:top;">models_to_run</td><td style="vertical-align:top;">:</td><td><div><table><tr><td><div>^\\w+\\.py$</div></td></tr><tr><td><div>^default/\\w+\\.py$</div></td></tr><tr><td><div>^default/index/\\w+\\.py$</div></td></tr></table></div></td></tr><tr><td style="font-weight:bold;vertical-align:top;">postprocessing</td><td style="vertical-align:top;">:</td><td><div><table></table></div></td></tr><tr><td style="font-weight:bold;vertical-align:top;">session_client</td><td style="vertical-align:top;">:</td><td><div>127.0.0.1</div></td></tr><tr><td style="font-weight:bold;vertical-align:top;">session_cookie_compression_level</td><td style="vertical-align:top;">:</td><td><div>None</div></td></tr><tr><td style="font-weight:bold;vertical-align:top;">session_cookie_expires</td><td style="vertical-align:top;">:</td><td><div>None</div></td></tr><tr><td style="font-weight:bold;vertical-align:top;">session_cookie_key</td><td style="vertical-align:top;">:</td><td><div>None</div></td></tr><tr><td style="font-weight:bold;vertical-align:top;">session_data_name</td><td style="vertical-align:top;">:</td><td><div>session_data_seunova</div></td></tr><tr><td style="font-weight:bold;vertical-align:top;">session_file</td><td style="vertical-align:top;">:</td><td><div>&lt;open file &#x27;/media/miguel/WORK/web2py/applications/seunova/sessions/0f3/1e8/127.0.0.1-e7ec54b4-0056-4779-be34-712f73d09b40&#x27;, mode &#x27;rb+&#x27; at 0x7f73d4070660&gt;</div></td></tr><tr><td style="font-weight:bold;vertical-align:top;">session_filename</td><td style="vertical-align:top;">:</td><td><div>/media/miguel/WORK/web2py/applications/seunova/sessions/127.0.0.1-e7ec54b4-0056-4779-be34-712f73d09b40</div></td></tr><tr><td style="font-weight:bold;vertical-align:top;">session_hash</td><td style="vertical-align:top;">:</td><td><div>fa0311927a142e15613c4594afce3711</div></td></tr><tr><td style="font-weight:bold;vertical-align:top;">session_id</td><td style="vertical-align:top;">:</td><td><div>127.0.0.1-e7ec54b4-0056-4779-be34-712f73d09b40</div></td></tr><tr><td style="font-weight:bold;vertical-align:top;">session_id_name</td><td style="vertical-align:top;">:</td><td><div>session_id_seunova</div></td></tr><tr><td style="font-weight:bold;vertical-align:top;">session_locked</td><td style="vertical-align:top;">:</td><td><div>True</div></td></tr><tr><td style="font-weight:bold;vertical-align:top;">session_masterapp</td><td style="vertical-align:top;">:</td><td><div>seunova</div></td></tr><tr><td style="font-weight:bold;vertical-align:top;">session_new</td><td style="vertical-align:top;">:</td><td><div>False</div></td></tr><tr><td style="font-weight:bold;vertical-align:top;">session_storage_type</td><td style="vertical-align:top;">:</td><td><div>file</div></td></tr><tr><td style="font-weight:bold;vertical-align:top;">status</td><td style="vertical-align:top;">:</td><td><div>200</div></td></tr><tr><td style="font-weight:bold;vertical-align:top;">view</td><td style="vertical-align:top;">:</td><td><div>default/index.html</div></td></tr></table></div>'
tRp189
sS'locals'
p190
(dp191
S'postcreation_fields'
p192
S'[]'
p193
sS'field_type'
p194
S"'long'"
p195
sS'sortable'
p196
S'4'
sS'sql_fields_aux'
p197
S"{'id': {'sql': 'INTEGER PRIMARY KEY AUTOINCREMENT'}, 'producto': {'sql': 'CHAR(512)'}, 'year': {'sql': 'INTEGER'}}"
p198
sS'TFK'
p199
g21
sS'migrate'
p200
S'True'
p201
sS'fields'
p202
S"['id INTEGER PRIMARY KEY AUTOINCREMENT', 'producto CHAR(512)', 'year INTEGER']"
p203
sS'self'
p204
S'<gluon.dal.adapters.sqlite.SQLiteAdapter object>'
p205
sS'tablename'
p206
S"'tabla2'"
p207
sS'fake_migrate'
p208
S'False'
p209
sS'db'
p210
S'<DAL uri="sqlite://storage.sqlite">'
p211
sS'field'
p212
S'<gluon.dal.objects.Field object>'
p213
sS'ftype'
p214
S"'INTEGER'"
p215
sS'polymodel'
p216
S'None'
p217
sS'table'
p218
S'<Table tabla2 (id,producto,year,kilogramos,valor)>'
p219
sS'sql_fields'
p220
S"{'id': {'length': 512, 'notnull': False, 'sortable': 1, 'sql': 'INTEGER PRIMARY KEY AUTOINCREMENT', 'type': 'id', 'unique': False}, 'producto': {'length': 512, 'notnull': False, 'sortable': 2, 'sql': 'CHAR(512)', 'type': 'string', 'unique': False}, 'year': {'length': 512, 'notnull': False, 'sortable': 3, 'sql': 'INTEGER', 'type': 'integer', 'unique': False}}"
p221
sS'field_name'
p222
S"'kilogramos'"
p223
sS'types'
p224
S"{'big-id': 'INTEGER PRIMARY KEY AUTOINCREMENT', 'big-reference': 'INTEGER REFERENCES %(foreign_key)s ON DELETE %(on_delete_action)s', 'bigint': 'INTEGER', 'blob': 'BLOB', 'boolean': 'CHAR(1)', 'date': 'DATE', 'datetime': 'TIMESTAMP', 'decimal': 'DOUBLE', 'double': 'DOUBLE', 'float': 'DOUBLE', ...}"
p225
sssS'traceback'
p226
S'Traceback (most recent call last):\n  File "/media/miguel/WORK/web2py/gluon/restricted.py", line 224, in restricted\n    exec ccode in environment\n  File "/media/miguel/WORK/web2py/applications/seunova/models/db_tables.py", line 156, in <module>\n    Field(\'valor\',\'long\',default=\'0\'))\n  File "/media/miguel/WORK/web2py/gluon/dal/base.py", line 787, in define_table\n    table = self.lazy_define_table(tablename,*fields,**args)\n  File "/media/miguel/WORK/web2py/gluon/dal/base.py", line 824, in lazy_define_table\n    polymodel=polymodel)\n  File "/media/miguel/WORK/web2py/gluon/dal/adapters/base.py", line 362, in create_table\n    (field_type, field_name))\nSyntaxError: Field: unknown field type: long for kilogramos\n'
p227
s.